ccopy_reg
_reconstructor
p1
(chtmresearch.frameworks.nlp.classify_keywords
ClassificationModelKeywords
p2
c__builtin__
object
p3
NtRp4
(dp5
S'verbosity'
p6
I0
sS'n'
I100
sS'numLabels'
p7
I35
sS'w'
I20
sS'filterText'
p8
I00
sS'classifier'
p9
g1
(cnupic.algorithms.KNNClassifier
KNNClassifier
p10
g3
NtRp11
(dp12
S'_Memory'
p13
g1
(cnupic.bindings.math
_NearestNeighbor32
p14
g3
NtRp15
(S'sm_csr_1.5 50488 500 100 10000 20 0 1 4 1 7 1 15 1 23 1 29 1 35 1 38 1 50 1 55 1 59 1 61 1 65 1 66 1 73 1 76 1 79 1 91 1 95 1 96 1 20 0 1 5 1 12 1 14 1 22 1 24 1 27 1 32 1 43 1 46 1 50 1 52 1 54 1 56 1 58 1 62 1 87 1 90 1 92 1 96 1 20 1 1 5 1 10 1 11 1 24 1 25 1 29 1 31 1 32 1 33 1 36 1 41 1 44 1 58 1 61 1 66 1 74 1 90 1 91 1 96 1 20 0 1 1 1 9 1 10 1 11 1 18 1 19 1 25 1 33 1 38 1 40 1 41 1 44 1 54 1 82 1 83 1 91 1 92 1 94 1 99 1 20 1 1 3 1 8 1 9 1 10 1 12 1 15 1 25 1 36 1 40 1 48 1 50 1 51 1 52 1 59 1 80 1 83 1 87 1 92 1 99 1 20 0 1 3 1 4 1 14 1 17 1 25 1 26 1 29 1 37 1 45 1 52 1 53 1 57 1 62 1 63 1 64 1 67 1 70 1 94 1 96 1 20 0 1 7 1 10 1 14 1 22 1 27 1 29 1 45 1 47 1 48 1 49 1 56 1 59 1 63 1 72 1 73 1 81 1 84 1 85 1 96 1 20 0 1 1 1 9 1 10 1 11 1 18 1 19 1 25 1 33 1 38 1 40 1 41 1 44 1 54 1 82 1 83 1 91 1 92 1 94 1 99 1 20 2 1 3 1 8 1 11 1 13 1 15 1 16 1 19 1 28 1 31 1 36 1 45 1 46 1 56 1 60 1 64 1 85 1 94 1 96 1 98 1 20 1 1 3 1 5 1 12 1 13 1 14 1 19 1 22 1 31 1 42 1 44 1 47 1 54 1 55 1 56 1 69 1 70 1 82 1 84 1 86 1 20 3 1 14 1 22 1 37 1 40 1 44 1 45 1 48 1 51 1 52 1 55 1 56 1 60 1 66 1 69 1 76 1 87 1 94 1 96 1 99 1 20 1 1 6 1 7 1 10 1 17 1 30 1 31 1 38 1 43 1 44 1 55 1 56 1 59 1 60 1 66 1 67 1 73 1 74 1 83 1 90 1 20 2 1 3 1 6 1 14 1 17 1 18 1 27 1 39 1 49 1 50 1 54 1 60 1 66 1 73 1 79 1 85 1 92 1 97 1 98 1 99 1 20 0 1 11 1 12 1 18 1 22 1 44 1 48 1 57 1 59 1 61 1 64 1 74 1 77 1 78 1 81 1 85 1 88 1 91 1 96 1 97 1 20 22 1 28 1 29 1 30 1 31 1 36 1 40 1 41 1 42 1 45 1 51 1 58 1 59 1 62 1 67 1 73 1 82 1 85 1 87 1 95 1 20 0 1 7 1 10 1 14 1 22 1 27 1 29 1 45 1 47 1 48 1 49 1 56 1 59 1 63 1 72 1 73 1 81 1 84 1 85 1 96 1 20 0 1 5 1 7 1 11 1 21 1 32 1 36 1 38 1 47 1 48 1 56 1 70 1 73 1 74 1 79 1 81 1 84 1 86 1 92 1 98 1 20 8 1 16 1 22 1 29 1 35 1 36 1 38 1 39 1 56 1 58 1 62 1 63 1 66 1 68 1 70 1 71 1 76 1 80 1 83 1 97 1 20 0 1 3 1 4 1 6 1 14 1 20 1 25 1 27 1 37 1 41 1 50 1 55 1 56 1 58 1 60 1 77 1 90 1 91 1 94 1 99 1 20 0 1 7 1 13 1 20 1 30 1 40 1 41 1 42 1 43 1 47 1 49 1 54 1 59 1 63 1 67 1 68 1 70 1 76 1 80 1 86 1 20 5 1 10 1 11 1 24 1 31 1 32 1 40 1 42 1 44 1 49 1 55 1 56 1 58 1 59 1 61 1 78 1 82 1 84 1 85 1 92 1 20 2 1 4 1 8 1 17 1 18 1 24 1 28 1 34 1 38 1 44 1 49 1 53 1 56 1 57 1 62 1 63 1 73 1 77 1 80 1 81 1 20 2 1 8 1 17 1 27 1 28 1 30 1 37 1 38 1 48 1 49 1 50 1 52 1 53 1 68 1 72 1 76 1 78 1 83 1 85 1 97 1 20 10 1 18 1 19 1 22 1 23 1 24 1 27 1 35 1 41 1 43 1 50 1 56 1 63 1 71 1 85 1 88 1 89 1 94 1 97 1 99 1 20 1 1 5 1 7 1 21 1 29 1 30 1 33 1 36 1 39 1 45 1 56 1 67 1 74 1 75 1 79 1 90 1 91 1 95 1 96 1 97 1 20 2 1 3 1 6 1 13 1 21 1 34 1 36 1 49 1 58 1 61 1 64 1 65 1 71 1 79 1 81 1 85 1 86 1 87 1 89 1 90 1 20 3 1 5 1 12 1 19 1 21 1 27 1 28 1 33 1 35 1 38 1 40 1 43 1 49 1 58 1 72 1 80 1 86 1 87 1 90 1 91 1 20 2 1 9 1 15 1 16 1 27 1 28 1 29 1 34 1 39 1 40 1 46 1 51 1 56 1 60 1 66 1 71 1 72 1 91 1 94 1 95 1 20 1 1 3 1 5 1 7 1 11 1 17 1 18 1 28 1 29 1 32 1 35 1 42 1 43 1 45 1 57 1 67 1 74 1 78 1 80 1 86 1 20 1 1 5 1 6 1 20 1 35 1 45 1 54 1 55 1 59 1 63 1 65 1 69 1 79 1 83 1 85 1 86 1 90 1 91 1 95 1 96 1 20 0 1 4 1 7 1 15 1 23 1 29 1 35 1 38 1 50 1 55 1 59 1 61 1 65 1 66 1 73 1 76 1 79 1 91 1 95 1 96 1 20 1 1 2 1 6 1 7 1 12 1 18 1 28 1 30 1 38 1 41 1 45 1 47 1 48 1 51 1 56 1 62 1 66 1 68 1 77 1 85 1 20 4 1 5 1 17 1 32 1 33 1 35 1 36 1 43 1 49 1 60 1 61 1 71 1 72 1 75 1 78 1 83 1 84 1 88 1 92 1 99 1 20 0 1 4 1 6 1 10 1 11 1 13 1 23 1 26 1 33 1 49 1 54 1 56 1 59 1 65 1 69 1 70 1 82 1 84 1 88 1 89 1 20 10 1 13 1 24 1 28 1 33 1 38 1 49 1 58 1 61 1 64 1 68 1 74 1 75 1 79 1 88 1 90 1 91 1 94 1 95 1 97 1 20 21 1 31 1 32 1 38 1 55 1 57 1 62 1 64 1 69 1 71 1 75 1 79 1 81 1 86 1 88 1 89 1 91 1 92 1 95 1 97 1 20 0 1 11 1 12 1 18 1 22 1 44 1 48 1 57 1 59 1 61 1 64 1 74 1 77 1 78 1 81 1 85 1 88 1 91 1 96 1 97 1 20 4 1 11 1 18 1 24 1 27 1 32 1 40 1 44 1 47 1 51 1 56 1 62 1 68 1 73 1 74 1 77 1 79 1 80 1 81 1 97 1 20 0 1 5 1 7 1 26 1 31 1 35 1 37 1 38 1 43 1 51 1 55 1 60 1 61 1 62 1 69 1 73 1 74 1 83 1 86 1 89 1 20 0 1 7 1 10 1 14 1 22 1 27 1 29 1 45 1 47 1 48 1 49 1 56 1 59 1 63 1 72 1 73 1 81 1 84 1 85 1 96 1 20 2 1 9 1 10 1 11 1 18 1 27 1 32 1 34 1 44 1 47 1 56 1 57 1 60 1 70 1 77 1 80 1 81 1 82 1 90 1 95 1 20 2 1 4 1 7 1 24 1 25 1 28 1 30 1 37 1 39 1 44 1 45 1 57 1 62 1 73 1 76 1 83 1 87 1 88 1 93 1 96 1 20 2 1 4 1 7 1 24 1 25 1 28 1 30 1 37 1 39 1 44 1 45 1 57 1 62 1 73 1 76 1 83 1 87 1 88 1 93 1 96 1 20 4 1 9 1 11 1 19 1 23 1 30 1 31 1 35 1 37 1 40 1 41 1 48 1 63 1 75 1 76 1 78 1 84 1 85 1 94 1 99 1 20 0 1 5 1 8 1 11 1 17 1 20 1 26 1 28 1 34 1 35 1 40 1 43 1 44 1 53 1 65 1 66 1 70 1 73 1 91 1 95 1 20 9 1 14 1 16 1 25 1 30 1 32 1 36 1 44 1 46 1 49 1 50 1 52 1 57 1 61 1 86 1 90 1 92 1 93 1 98 1 99 1 20 4 1 13 1 18 1 19 1 25 1 27 1 30 1 33 1 41 1 43 1 46 1 48 1 55 1 68 1 71 1 79 1 85 1 88 1 90 1 91 1 20 0 1 9 1 17 1 22 1 25 1 39 1 42 1 45 1 48 1 52 1 65 1 66 1 67 1 69 1 73 1 79 1 80 1 85 1 94 1 95 1 20 4 1 8 1 9 1 12 1 13 1 23 1 26 1 34 1 36 1 45 1 49 1 54 1 62 1 67 1 72 1 88 1 90 1 91 1 97 1 99 1 20 2 1 4 1 6 1 11 1 18 1 29 1 39 1 47 1 51 1 54 1 59 1 62 1 63 1 67 1 70 1 74 1 75 1 76 1 84 1 90 1 20 3 1 18 1 21 1 23 1 24 1 29 1 32 1 38 1 55 1 57 1 60 1 65 1 67 1 68 1 77 1 78 1 79 1 82 1 88 1 92 1 20 0 1 12 1 14 1 19 1 23 1 24 1 30 1 32 1 34 1 36 1 43 1 45 1 53 1 56 1 75 1 83 1 87 1 91 1 93 1 97 1 20 1 1 4 1 15 1 18 1 26 1 31 1 34 1 48 1 51 1 53 1 55 1 61 1 69 1 71 1 72 1 79 1 80 1 83 1 96 1 98 1 20 0 1 1 1 11 1 15 1 16 1 17 1 21 1 25 1 29 1 30 1 33 1 41 1 45 1 60 1 70 1 77 1 79 1 83 1 85 1 87 1 20 0 1 6 1 10 1 11 1 13 1 15 1 20 1 22 1 28 1 43 1 46 1 50 1 54 1 61 1 70 1 75 1 82 1 84 1 96 1 98 1 20 4 1 7 1 9 1 10 1 30 1 34 1 35 1 36 1 40 1 45 1 46 1 52 1 55 1 61 1 63 1 65 1 69 1 76 1 79 1 87 1 20 1 1 5 1 7 1 21 1 29 1 30 1 33 1 36 1 39 1 45 1 56 1 67 1 74 1 75 1 79 1 90 1 91 1 95 1 96 1 97 1 20 0 1 2 1 4 1 10 1 15 1 16 1 21 1 27 1 30 1 42 1 45 1 46 1 53 1 54 1 73 1 75 1 76 1 93 1 98 1 99 1 20 0 1 5 1 7 1 11 1 21 1 32 1 36 1 38 1 47 1 48 1 56 1 70 1 73 1 74 1 79 1 81 1 84 1 86 1 92 1 98 1 20 0 1 8 1 13 1 17 1 24 1 33 1 35 1 37 1 51 1 53 1 55 1 70 1 78 1 79 1 82 1 83 1 87 1 88 1 93 1 99 1 20 1 1 4 1 12 1 15 1 18 1 26 1 29 1 30 1 37 1 39 1 51 1 53 1 57 1 58 1 60 1 69 1 70 1 78 1 82 1 95 1 20 6 1 8 1 10 1 13 1 17 1 18 1 20 1 22 1 33 1 39 1 43 1 55 1 61 1 65 1 71 1 81 1 91 1 93 1 96 1 99 1 20 5 1 7 1 10 1 24 1 29 1 32 1 34 1 42 1 57 1 58 1 64 1 65 1 68 1 83 1 85 1 86 1 92 1 94 1 97 1 98 1 20 8 1 11 1 19 1 21 1 26 1 27 1 28 1 35 1 39 1 42 1 43 1 49 1 50 1 54 1 61 1 71 1 78 1 81 1 94 1 97 1 20 0 1 7 1 14 1 20 1 27 1 40 1 45 1 46 1 47 1 49 1 57 1 59 1 60 1 61 1 64 1 66 1 67 1 71 1 88 1 93 1 20 2 1 16 1 22 1 23 1 36 1 40 1 45 1 47 1 49 1 51 1 57 1 60 1 68 1 70 1 74 1 77 1 80 1 82 1 90 1 95 1 20 3 1 6 1 10 1 17 1 18 1 24 1 28 1 30 1 40 1 45 1 54 1 62 1 64 1 68 1 80 1 81 1 82 1 86 1 88 1 89 1 20 0 1 12 1 14 1 24 1 27 1 30 1 34 1 35 1 36 1 49 1 50 1 52 1 61 1 62 1 72 1 73 1 77 1 79 1 86 1 89 1 20 2 1 3 1 9 1 13 1 20 1 28 1 41 1 43 1 47 1 55 1 60 1 68 1 69 1 76 1 78 1 82 1 85 1 86 1 89 1 96 1 20 1 1 9 1 11 1 15 1 29 1 36 1 42 1 52 1 62 1 66 1 68 1 69 1 74 1 78 1 79 1 80 1 87 1 89 1 94 1 99 1 20 2 1 6 1 7 1 8 1 11 1 13 1 15 1 20 1 26 1 38 1 40 1 49 1 56 1 61 1 69 1 71 1 72 1 80 1 92 1 96 1 20 1 1 7 1 13 1 19 1 21 1 26 1 36 1 43 1 44 1 54 1 59 1 67 1 75 1 76 1 80 1 83 1 86 1 88 1 90 1 91 1 20 10 1 18 1 22 1 23 1 29 1 30 1 39 1 41 1 42 1 43 1 47 1 50 1 59 1 60 1 67 1 73 1 83 1 86 1 90 1 97 1 20 1 1 12 1 18 1 29 1 30 1 31 1 33 1 35 1 40 1 43 1 57 1 68 1 73 1 74 1 77 1 86 1 88 1 90 1 91 1 95 1 20 2 1 3 1 14 1 16 1 18 1 19 1 21 1 26 1 40 1 45 1 46 1 50 1 52 1 62 1 70 1 80 1 88 1 90 1 91 1 98 1 20 3 1 8 1 15 1 16 1 17 1 20 1 21 1 30 1 41 1 43 1 46 1 50 1 58 1 61 1 73 1 77 1 79 1 81 1 93 1 94 1 20 2 1 6 1 12 1 15 1 16 1 25 1 29 1 30 1 35 1 37 1 38 1 41 1 49 1 56 1 58 1 70 1 73 1 81 1 86 1 89 1 20 3 1 7 1 11 1 15 1 27 1 33 1 42 1 48 1 51 1 52 1 53 1 57 1 62 1 64 1 69 1 74 1 80 1 87 1 92 1 96 1 20 1 1 5 1 7 1 21 1 29 1 30 1 33 1 36 1 39 1 45 1 56 1 67 1 74 1 75 1 79 1 90 1 91 1 95 1 96 1 97 1 20 22 1 27 1 30 1 40 1 42 1 49 1 56 1 58 1 61 1 63 1 69 1 70 1 77 1 78 1 87 1 92 1 95 1 96 1 97 1 99 1 20 1 1 3 1 5 1 12 1 13 1 14 1 19 1 22 1 31 1 42 1 44 1 47 1 54 1 55 1 56 1 69 1 70 1 82 1 84 1 86 1 20 3 1 14 1 16 1 17 1 27 1 34 1 36 1 40 1 42 1 43 1 59 1 60 1 63 1 64 1 65 1 67 1 69 1 88 1 89 1 99 1 20 2 1 4 1 8 1 17 1 18 1 24 1 28 1 34 1 38 1 44 1 49 1 53 1 56 1 57 1 62 1 63 1 73 1 77 1 80 1 81 1 20 1 1 17 1 21 1 22 1 26 1 28 1 29 1 31 1 33 1 37 1 47 1 50 1 54 1 58 1 60 1 65 1 80 1 83 1 84 1 94 1 20 3 1 12 1 18 1 19 1 29 1 46 1 51 1 55 1 57 1 64 1 67 1 71 1 73 1 76 1 77 1 80 1 85 1 91 1 92 1 99 1 20 1 1 3 1 5 1 12 1 13 1 14 1 19 1 22 1 31 1 42 1 44 1 47 1 54 1 55 1 56 1 69 1 70 1 82 1 84 1 86 1 20 2 1 4 1 5 1 17 1 19 1 23 1 24 1 30 1 35 1 46 1 51 1 55 1 56 1 58 1 60 1 74 1 84 1 91 1 92 1 99 1 20 5 1 6 1 8 1 15 1 17 1 18 1 19 1 23 1 26 1 27 1 31 1 32 1 40 1 43 1 51 1 54 1 79 1 81 1 91 1 95 1 20 5 1 7 1 12 1 13 1 14 1 15 1 16 1 18 1 24 1 37 1 40 1 42 1 47 1 61 1 65 1 69 1 74 1 83 1 93 1 95 1 20 0 1 1 1 3 1 9 1 10 1 11 1 12 1 21 1 23 1 46 1 47 1 52 1 54 1 61 1 63 1 64 1 65 1 66 1 79 1 87 1 20 7 1 14 1 17 1 18 1 19 1 24 1 29 1 30 1 32 1 38 1 41 1 45 1 53 1 62 1 67 1 83 1 86 1 92 1 93 1 95 1 20 1 1 20 1 21 1 30 1 36 1 37 1 42 1 47 1 52 1 55 1 62 1 63 1 70 1 74 1 77 1 78 1 87 1 88 1 95 1 99 1 20 2 1 12 1 14 1 18 1 24 1 27 1 42 1 43 1 45 1 55 1 60 1 61 1 64 1 66 1 68 1 70 1 71 1 81 1 83 1 85 1 20 8 1 9 1 13 1 16 1 21 1 23 1 24 1 26 1 30 1 31 1 33 1 40 1 43 1 44 1 61 1 64 1 83 1 84 1 86 1 94 1 20 1 1 3 1 5 1 11 1 12 1 28 1 36 1 41 1 42 1 45 1 51 1 52 1 54 1 63 1 65 1 70 1 86 1 88 1 89 1 90 1 20 4 1 6 1 12 1 18 1 20 1 24 1 30 1 36 1 38 1 41 1 70 1 72 1 82 1 85 1 88 1 90 1 91 1 94 1 96 1 98 1 20 5 1 9 1 17 1 27 1 28 1 29 1 30 1 36 1 37 1 41 1 46 1 51 1 55 1 60 1 65 1 70 1 81 1 84 1 87 1 97 1 20 8 1 10 1 14 1 18 1 23 1 25 1 32 1 37 1 51 1 53 1 55 1 59 1 61 1 72 1 76 1 78 1 82 1 84 1 89 1 91 1 20 0 1 5 1 7 1 11 1 21 1 32 1 36 1 38 1 47 1 48 1 56 1 70 1 73 1 74 1 79 1 81 1 84 1 86 1 92 1 98 1 20 1 1 5 1 7 1 21 1 29 1 30 1 33 1 36 1 39 1 45 1 56 1 67 1 74 1 75 1 79 1 90 1 91 1 95 1 96 1 97 1 20 1 1 16 1 20 1 21 1 22 1 29 1 33 1 42 1 44 1 48 1 59 1 60 1 63 1 76 1 80 1 85 1 86 1 90 1 92 1 95 1 20 3 1 11 1 12 1 15 1 19 1 28 1 33 1 34 1 37 1 38 1 41 1 44 1 53 1 54 1 67 1 71 1 73 1 78 1 88 1 92 1 20 3 1 4 1 7 1 11 1 12 1 14 1 17 1 22 1 33 1 36 1 55 1 58 1 63 1 64 1 70 1 79 1 82 1 88 1 92 1 93 1 20 5 1 9 1 17 1 27 1 28 1 29 1 30 1 36 1 37 1 41 1 46 1 51 1 55 1 60 1 65 1 70 1 81 1 84 1 87 1 97 1 20 8 1 9 1 11 1 14 1 15 1 17 1 19 1 22 1 30 1 32 1 43 1 46 1 58 1 66 1 69 1 84 1 85 1 91 1 97 1 99 1 20 0 1 12 1 14 1 24 1 27 1 30 1 34 1 35 1 36 1 49 1 50 1 52 1 61 1 62 1 72 1 73 1 77 1 79 1 86 1 89 1 20 2 1 4 1 9 1 18 1 31 1 35 1 41 1 43 1 46 1 49 1 50 1 59 1 60 1 61 1 67 1 68 1 73 1 75 1 90 1 94 1 20 1 1 2 1 6 1 7 1 12 1 18 1 28 1 30 1 38 1 41 1 45 1 47 1 48 1 51 1 56 1 62 1 66 1 68 1 77 1 85 1 20 2 1 6 1 14 1 21 1 24 1 28 1 31 1 33 1 42 1 45 1 46 1 47 1 48 1 52 1 76 1 83 1 85 1 89 1 95 1 98 1 20 1 1 8 1 15 1 21 1 24 1 29 1 31 1 38 1 39 1 46 1 62 1 64 1 65 1 69 1 79 1 81 1 83 1 86 1 93 1 94 1 20 2 1 6 1 14 1 21 1 24 1 28 1 31 1 33 1 42 1 45 1 46 1 47 1 48 1 52 1 76 1 83 1 85 1 89 1 95 1 98 1 20 3 1 12 1 18 1 19 1 29 1 46 1 51 1 55 1 57 1 64 1 67 1 71 1 73 1 76 1 77 1 80 1 85 1 91 1 92 1 99 1 20 3 1 6 1 10 1 11 1 12 1 21 1 22 1 37 1 41 1 42 1 43 1 51 1 58 1 61 1 62 1 68 1 72 1 74 1 81 1 87 1 20 3 1 7 1 8 1 11 1 14 1 24 1 25 1 29 1 47 1 50 1 59 1 65 1 69 1 79 1 81 1 83 1 85 1 90 1 93 1 97 1 20 9 1 13 1 15 1 18 1 20 1 27 1 39 1 45 1 51 1 55 1 60 1 62 1 68 1 77 1 79 1 86 1 87 1 93 1 95 1 98 1 20 1 1 3 1 4 1 7 1 10 1 15 1 17 1 26 1 28 1 32 1 39 1 56 1 58 1 59 1 70 1 78 1 87 1 91 1 92 1 93 1 20 1 1 4 1 12 1 15 1 18 1 26 1 29 1 30 1 37 1 39 1 51 1 53 1 57 1 58 1 60 1 69 1 70 1 78 1 82 1 95 1 20 1 1 5 1 7 1 21 1 29 1 30 1 33 1 36 1 39 1 45 1 56 1 67 1 74 1 75 1 79 1 90 1 91 1 95 1 96 1 97 1 20 2 1 4 1 12 1 14 1 22 1 24 1 28 1 33 1 47 1 49 1 51 1 53 1 58 1 66 1 72 1 76 1 83 1 93 1 94 1 97 1 20 3 1 5 1 12 1 19 1 21 1 27 1 28 1 33 1 35 1 38 1 40 1 43 1 49 1 58 1 72 1 80 1 86 1 87 1 90 1 91 1 20 3 1 6 1 9 1 13 1 14 1 17 1 18 1 29 1 31 1 38 1 47 1 49 1 51 1 61 1 77 1 78 1 81 1 82 1 94 1 98 1 20 1 1 3 1 5 1 11 1 12 1 28 1 36 1 41 1 42 1 45 1 51 1 52 1 54 1 63 1 65 1 70 1 86 1 88 1 89 1 90 1 20 4 1 9 1 10 1 15 1 31 1 33 1 41 1 44 1 54 1 57 1 62 1 63 1 66 1 69 1 70 1 75 1 80 1 81 1 83 1 98 1 20 2 1 3 1 9 1 13 1 20 1 28 1 41 1 43 1 47 1 55 1 60 1 68 1 69 1 76 1 78 1 82 1 85 1 86 1 89 1 96 1 20 2 1 4 1 9 1 18 1 31 1 35 1 41 1 43 1 46 1 49 1 50 1 59 1 60 1 61 1 67 1 68 1 73 1 75 1 90 1 94 1 20 1 1 5 1 15 1 26 1 28 1 29 1 33 1 37 1 38 1 40 1 43 1 52 1 62 1 66 1 70 1 74 1 81 1 84 1 91 1 95 1 20 1 1 9 1 11 1 15 1 29 1 36 1 42 1 52 1 62 1 66 1 68 1 69 1 74 1 78 1 79 1 80 1 87 1 89 1 94 1 99 1 20 1 1 9 1 17 1 35 1 38 1 45 1 50 1 51 1 53 1 56 1 59 1 62 1 72 1 77 1 80 1 82 1 85 1 91 1 94 1 95 1 20 0 1 1 1 9 1 10 1 11 1 18 1 19 1 25 1 33 1 38 1 40 1 41 1 44 1 54 1 82 1 83 1 91 1 92 1 94 1 99 1 20 1 1 4 1 12 1 15 1 18 1 26 1 29 1 30 1 37 1 39 1 51 1 53 1 57 1 58 1 60 1 69 1 70 1 78 1 82 1 95 1 20 9 1 12 1 28 1 39 1 41 1 42 1 48 1 51 1 61 1 65 1 66 1 68 1 73 1 75 1 76 1 77 1 78 1 86 1 92 1 98 1 20 0 1 4 1 10 1 11 1 12 1 18 1 21 1 33 1 34 1 40 1 56 1 66 1 67 1 70 1 71 1 72 1 73 1 75 1 80 1 97 1 20 1 1 5 1 7 1 21 1 29 1 30 1 33 1 36 1 39 1 45 1 56 1 67 1 74 1 75 1 79 1 90 1 91 1 95 1 96 1 97 1 20 4 1 11 1 18 1 24 1 27 1 32 1 40 1 44 1 47 1 51 1 56 1 62 1 68 1 73 1 74 1 77 1 79 1 80 1 81 1 97 1 20 3 1 5 1 12 1 19 1 21 1 27 1 28 1 33 1 35 1 38 1 40 1 43 1 49 1 58 1 72 1 80 1 86 1 87 1 90 1 91 1 20 11 1 15 1 20 1 28 1 34 1 38 1 39 1 44 1 45 1 56 1 58 1 64 1 67 1 70 1 78 1 79 1 84 1 87 1 91 1 93 1 20 1 1 5 1 10 1 11 1 24 1 25 1 29 1 31 1 32 1 33 1 36 1 41 1 44 1 58 1 61 1 66 1 74 1 90 1 91 1 96 1 20 1 1 3 1 5 1 11 1 12 1 28 1 36 1 41 1 42 1 45 1 51 1 52 1 54 1 63 1 65 1 70 1 86 1 88 1 89 1 90 1 20 2 1 3 1 9 1 13 1 20 1 28 1 41 1 43 1 47 1 55 1 60 1 68 1 69 1 76 1 78 1 82 1 85 1 86 1 89 1 96 1 20 2 1 9 1 12 1 14 1 16 1 22 1 28 1 36 1 37 1 39 1 44 1 53 1 56 1 57 1 60 1 65 1 66 1 72 1 85 1 91 1 20 0 1 3 1 30 1 32 1 35 1 45 1 53 1 54 1 57 1 58 1 62 1 70 1 84 1 85 1 86 1 90 1 94 1 95 1 97 1 98 1 20 9 1 10 1 13 1 21 1 25 1 34 1 41 1 48 1 50 1 58 1 61 1 62 1 69 1 75 1 83 1 87 1 90 1 92 1 93 1 98 1 20 9 1 10 1 11 1 12 1 15 1 20 1 21 1 22 1 36 1 37 1 44 1 47 1 56 1 58 1 60 1 80 1 82 1 86 1 89 1 97 1 20 4 1 7 1 10 1 14 1 15 1 19 1 21 1 24 1 30 1 39 1 44 1 48 1 58 1 65 1 68 1 73 1 78 1 80 1 92 1 95 1 20 1 1 4 1 8 1 13 1 14 1 17 1 22 1 23 1 27 1 45 1 47 1 51 1 73 1 75 1 78 1 79 1 81 1 82 1 89 1 99 1 20 8 1 13 1 15 1 18 1 20 1 24 1 27 1 30 1 32 1 37 1 39 1 47 1 62 1 63 1 67 1 70 1 81 1 84 1 90 1 99 1 20 0 1 3 1 6 1 15 1 30 1 33 1 37 1 38 1 42 1 46 1 49 1 53 1 54 1 57 1 61 1 65 1 71 1 76 1 83 1 85 1 20 2 1 11 1 15 1 21 1 38 1 46 1 47 1 56 1 58 1 60 1 70 1 71 1 77 1 78 1 80 1 82 1 87 1 92 1 93 1 97 1 20 8 1 9 1 10 1 12 1 13 1 20 1 26 1 42 1 51 1 62 1 65 1 66 1 68 1 71 1 83 1 87 1 89 1 90 1 95 1 97 1 20 1 1 3 1 4 1 6 1 8 1 15 1 23 1 24 1 25 1 29 1 50 1 57 1 64 1 66 1 68 1 70 1 77 1 80 1 82 1 94 1 20 1 1 2 1 4 1 7 1 18 1 20 1 22 1 26 1 30 1 32 1 43 1 45 1 63 1 72 1 76 1 83 1 85 1 88 1 93 1 99 1 20 0 1 4 1 7 1 14 1 18 1 27 1 30 1 44 1 50 1 56 1 57 1 58 1 60 1 62 1 65 1 69 1 70 1 72 1 94 1 98 1 20 4 1 6 1 13 1 16 1 19 1 21 1 22 1 25 1 41 1 43 1 44 1 45 1 56 1 57 1 59 1 76 1 91 1 92 1 95 1 97 1 20 12 1 19 1 25 1 29 1 30 1 34 1 42 1 47 1 51 1 59 1 61 1 63 1 68 1 76 1 83 1 86 1 93 1 95 1 96 1 97 1 20 4 1 18 1 19 1 20 1 23 1 33 1 37 1 40 1 44 1 46 1 54 1 55 1 56 1 62 1 67 1 73 1 77 1 82 1 96 1 98 1 20 6 1 9 1 11 1 18 1 20 1 25 1 26 1 36 1 38 1 42 1 43 1 52 1 59 1 61 1 62 1 65 1 67 1 70 1 78 1 80 1 20 2 1 3 1 14 1 16 1 18 1 19 1 21 1 26 1 40 1 45 1 46 1 50 1 52 1 62 1 70 1 80 1 88 1 90 1 91 1 98 1 20 8 1 14 1 28 1 29 1 38 1 43 1 48 1 51 1 56 1 58 1 60 1 61 1 68 1 73 1 75 1 77 1 84 1 90 1 93 1 98 1 20 5 1 8 1 17 1 18 1 27 1 31 1 36 1 44 1 54 1 57 1 58 1 68 1 73 1 75 1 85 1 87 1 88 1 93 1 95 1 99 1 20 0 1 5 1 13 1 35 1 37 1 43 1 44 1 47 1 50 1 52 1 54 1 55 1 56 1 58 1 62 1 65 1 67 1 73 1 93 1 94 1 20 2 1 5 1 15 1 18 1 20 1 22 1 37 1 41 1 50 1 56 1 57 1 61 1 63 1 64 1 65 1 75 1 78 1 90 1 91 1 99 1 20 0 1 9 1 17 1 22 1 25 1 39 1 42 1 45 1 48 1 52 1 65 1 66 1 67 1 69 1 73 1 79 1 80 1 85 1 94 1 95 1 20 0 1 8 1 10 1 16 1 22 1 23 1 26 1 31 1 35 1 42 1 44 1 48 1 50 1 59 1 66 1 77 1 79 1 83 1 92 1 96 1 20 3 1 12 1 18 1 19 1 29 1 46 1 51 1 55 1 57 1 64 1 67 1 71 1 73 1 76 1 77 1 80 1 85 1 91 1 92 1 99 1 20 1 1 5 1 7 1 21 1 29 1 30 1 33 1 36 1 39 1 45 1 56 1 67 1 74 1 75 1 79 1 90 1 91 1 95 1 96 1 97 1 20 0 1 6 1 10 1 11 1 13 1 15 1 20 1 22 1 28 1 43 1 46 1 50 1 54 1 61 1 70 1 75 1 82 1 84 1 96 1 98 1 20 2 1 11 1 15 1 21 1 38 1 46 1 47 1 56 1 58 1 60 1 70 1 71 1 77 1 78 1 80 1 82 1 87 1 92 1 93 1 97 1 20 0 1 1 1 11 1 15 1 16 1 17 1 21 1 25 1 29 1 30 1 33 1 41 1 45 1 60 1 70 1 77 1 79 1 83 1 85 1 87 1 20 5 1 6 1 7 1 8 1 20 1 24 1 25 1 27 1 42 1 46 1 56 1 57 1 58 1 59 1 61 1 64 1 76 1 81 1 92 1 95 1 20 8 1 17 1 20 1 23 1 24 1 36 1 37 1 40 1 50 1 51 1 52 1 59 1 63 1 64 1 67 1 71 1 82 1 84 1 93 1 98 1 20 0 1 1 1 9 1 10 1 11 1 18 1 19 1 25 1 33 1 38 1 40 1 41 1 44 1 54 1 82 1 83 1 91 1 92 1 94 1 99 1 20 1 1 4 1 5 1 15 1 18 1 19 1 23 1 30 1 42 1 43 1 49 1 55 1 66 1 69 1 70 1 84 1 87 1 92 1 96 1 99 1 20 3 1 12 1 18 1 19 1 29 1 46 1 51 1 55 1 57 1 64 1 67 1 71 1 73 1 76 1 77 1 80 1 85 1 91 1 92 1 99 1 20 1 1 5 1 7 1 21 1 29 1 30 1 33 1 36 1 39 1 45 1 56 1 67 1 74 1 75 1 79 1 90 1 91 1 95 1 96 1 97 1 20 1 1 4 1 15 1 18 1 26 1 31 1 34 1 48 1 51 1 53 1 55 1 61 1 69 1 71 1 72 1 79 1 80 1 83 1 96 1 98 1 20 2 1 9 1 10 1 18 1 20 1 23 1 25 1 26 1 27 1 28 1 36 1 38 1 43 1 49 1 52 1 76 1 80 1 81 1 89 1 90 1 20 0 1 1 1 9 1 10 1 11 1 18 1 19 1 25 1 33 1 38 1 40 1 41 1 44 1 54 1 82 1 83 1 91 1 92 1 94 1 99 1 20 0 1 14 1 25 1 30 1 38 1 40 1 41 1 44 1 59 1 60 1 64 1 67 1 71 1 72 1 79 1 82 1 88 1 92 1 93 1 99 1 20 3 1 12 1 18 1 19 1 29 1 46 1 51 1 55 1 57 1 64 1 67 1 71 1 73 1 76 1 77 1 80 1 85 1 91 1 92 1 99 1 20 12 1 19 1 25 1 29 1 30 1 34 1 42 1 47 1 51 1 59 1 61 1 63 1 68 1 76 1 83 1 86 1 93 1 95 1 96 1 97 1 20 0 1 4 1 6 1 12 1 19 1 22 1 23 1 32 1 35 1 47 1 55 1 68 1 70 1 71 1 72 1 75 1 77 1 84 1 87 1 97 1 20 4 1 10 1 11 1 12 1 21 1 22 1 25 1 26 1 27 1 47 1 50 1 53 1 66 1 69 1 73 1 74 1 82 1 86 1 87 1 89 1 20 1 1 12 1 13 1 19 1 20 1 28 1 31 1 32 1 37 1 41 1 44 1 45 1 46 1 49 1 67 1 72 1 74 1 83 1 92 1 97 1 20 1 1 4 1 5 1 16 1 21 1 27 1 29 1 35 1 48 1 54 1 56 1 63 1 65 1 75 1 78 1 80 1 86 1 94 1 95 1 98 1 20 12 1 19 1 25 1 29 1 30 1 34 1 42 1 47 1 51 1 59 1 61 1 63 1 68 1 76 1 83 1 86 1 93 1 95 1 96 1 97 1 20 1 1 2 1 9 1 10 1 12 1 20 1 31 1 32 1 40 1 42 1 45 1 46 1 54 1 56 1 62 1 74 1 78 1 84 1 89 1 90 1 20 10 1 18 1 22 1 23 1 29 1 30 1 39 1 41 1 42 1 43 1 47 1 50 1 59 1 60 1 67 1 73 1 83 1 86 1 90 1 97 1 20 0 1 1 1 9 1 10 1 11 1 18 1 19 1 25 1 33 1 38 1 40 1 41 1 44 1 54 1 82 1 83 1 91 1 92 1 94 1 99 1 20 0 1 12 1 15 1 16 1 20 1 29 1 34 1 36 1 38 1 39 1 45 1 48 1 55 1 61 1 62 1 66 1 75 1 78 1 86 1 89 1 20 2 1 11 1 15 1 21 1 38 1 46 1 47 1 56 1 58 1 60 1 70 1 71 1 77 1 78 1 80 1 82 1 87 1 92 1 93 1 97 1 20 0 1 1 1 9 1 10 1 11 1 18 1 19 1 25 1 33 1 38 1 40 1 41 1 44 1 54 1 82 1 83 1 91 1 92 1 94 1 99 1 20 6 1 16 1 18 1 20 1 23 1 25 1 29 1 30 1 39 1 45 1 48 1 53 1 56 1 59 1 63 1 64 1 73 1 74 1 95 1 99 1 20 1 1 3 1 9 1 12 1 16 1 22 1 30 1 33 1 41 1 46 1 58 1 59 1 61 1 69 1 74 1 77 1 79 1 83 1 85 1 98 1 20 1 1 12 1 13 1 19 1 20 1 28 1 31 1 32 1 37 1 41 1 44 1 45 1 46 1 49 1 67 1 72 1 74 1 83 1 92 1 97 1 20 1 1 5 1 7 1 21 1 29 1 30 1 33 1 36 1 39 1 45 1 56 1 67 1 74 1 75 1 79 1 90 1 91 1 95 1 96 1 97 1 20 2 1 8 1 14 1 18 1 28 1 34 1 35 1 37 1 38 1 40 1 41 1 49 1 52 1 59 1 70 1 72 1 74 1 92 1 96 1 98 1 20 2 1 3 1 14 1 16 1 18 1 19 1 21 1 26 1 40 1 45 1 46 1 50 1 52 1 62 1 70 1 80 1 88 1 90 1 91 1 98 1 20 0 1 12 1 15 1 16 1 20 1 29 1 34 1 36 1 38 1 39 1 45 1 48 1 55 1 61 1 62 1 66 1 75 1 78 1 86 1 89 1 20 1 1 3 1 9 1 12 1 16 1 22 1 30 1 33 1 41 1 46 1 58 1 59 1 61 1 69 1 74 1 77 1 79 1 83 1 85 1 98 1 20 0 1 8 1 30 1 31 1 33 1 34 1 46 1 55 1 56 1 60 1 62 1 63 1 65 1 71 1 81 1 82 1 83 1 86 1 89 1 94 1 20 1 1 3 1 5 1 12 1 13 1 14 1 19 1 22 1 31 1 42 1 44 1 47 1 54 1 55 1 56 1 69 1 70 1 82 1 84 1 86 1 20 2 1 7 1 11 1 21 1 22 1 25 1 34 1 38 1 39 1 45 1 47 1 48 1 55 1 56 1 61 1 63 1 73 1 79 1 82 1 97 1 20 3 1 5 1 12 1 19 1 21 1 27 1 28 1 33 1 35 1 38 1 40 1 43 1 49 1 58 1 72 1 80 1 86 1 87 1 90 1 91 1 20 1 1 7 1 8 1 9 1 14 1 23 1 33 1 37 1 39 1 48 1 51 1 58 1 66 1 71 1 75 1 80 1 82 1 83 1 90 1 92 1 20 10 1 13 1 24 1 28 1 33 1 38 1 49 1 58 1 61 1 64 1 68 1 74 1 75 1 79 1 88 1 90 1 91 1 94 1 95 1 97 1 20 7 1 8 1 17 1 22 1 23 1 33 1 38 1 40 1 41 1 46 1 50 1 51 1 56 1 59 1 63 1 64 1 71 1 74 1 76 1 92 1 20 1 1 6 1 21 1 25 1 26 1 30 1 31 1 32 1 33 1 37 1 45 1 49 1 55 1 60 1 62 1 64 1 67 1 76 1 79 1 80 1 20 3 1 12 1 18 1 19 1 29 1 46 1 51 1 55 1 57 1 64 1 67 1 71 1 73 1 76 1 77 1 80 1 85 1 91 1 92 1 99 1 20 1 1 5 1 7 1 21 1 29 1 30 1 33 1 36 1 39 1 45 1 56 1 67 1 74 1 75 1 79 1 90 1 91 1 95 1 96 1 97 1 20 2 1 8 1 14 1 18 1 28 1 34 1 35 1 37 1 38 1 40 1 41 1 49 1 52 1 59 1 70 1 72 1 74 1 92 1 96 1 98 1 20 0 1 1 1 9 1 10 1 11 1 18 1 19 1 25 1 33 1 38 1 40 1 41 1 44 1 54 1 82 1 83 1 91 1 92 1 94 1 99 1 20 3 1 13 1 16 1 17 1 18 1 27 1 29 1 31 1 39 1 44 1 52 1 59 1 78 1 82 1 83 1 84 1 86 1 89 1 94 1 98 1 20 4 1 7 1 9 1 10 1 30 1 34 1 35 1 36 1 40 1 45 1 46 1 52 1 55 1 61 1 63 1 65 1 69 1 76 1 79 1 87 1 20 0 1 1 1 9 1 10 1 11 1 18 1 19 1 25 1 33 1 38 1 40 1 41 1 44 1 54 1 82 1 83 1 91 1 92 1 94 1 99 1 20 0 1 12 1 15 1 16 1 20 1 29 1 34 1 36 1 38 1 39 1 45 1 48 1 55 1 61 1 62 1 66 1 75 1 78 1 86 1 89 1 20 1 1 3 1 9 1 12 1 16 1 22 1 30 1 33 1 41 1 46 1 58 1 59 1 61 1 69 1 74 1 77 1 79 1 83 1 85 1 98 1 20 3 1 12 1 18 1 19 1 29 1 46 1 51 1 55 1 57 1 64 1 67 1 71 1 73 1 76 1 77 1 80 1 85 1 91 1 92 1 99 1 20 1 1 3 1 5 1 12 1 13 1 14 1 19 1 22 1 31 1 42 1 44 1 47 1 54 1 55 1 56 1 69 1 70 1 82 1 84 1 86 1 20 2 1 5 1 12 1 16 1 18 1 30 1 33 1 35 1 40 1 44 1 49 1 54 1 55 1 71 1 75 1 78 1 80 1 82 1 84 1 99 1 20 2 1 4 1 8 1 17 1 18 1 24 1 28 1 34 1 38 1 44 1 49 1 53 1 56 1 57 1 62 1 63 1 73 1 77 1 80 1 81 1 20 7 1 10 1 13 1 17 1 18 1 21 1 32 1 40 1 48 1 61 1 65 1 68 1 69 1 76 1 79 1 80 1 85 1 86 1 90 1 99 1 20 0 1 8 1 30 1 31 1 33 1 34 1 46 1 55 1 56 1 60 1 62 1 63 1 65 1 71 1 81 1 82 1 83 1 86 1 89 1 94 1 20 4 1 16 1 22 1 23 1 40 1 44 1 51 1 58 1 62 1 66 1 67 1 76 1 81 1 88 1 89 1 91 1 92 1 94 1 95 1 97 1 20 12 1 19 1 25 1 29 1 30 1 34 1 42 1 47 1 51 1 59 1 61 1 63 1 68 1 76 1 83 1 86 1 93 1 95 1 96 1 97 1 20 8 1 9 1 18 1 21 1 27 1 29 1 35 1 42 1 44 1 46 1 50 1 59 1 60 1 67 1 69 1 88 1 90 1 95 1 98 1 99 1 20 2 1 3 1 14 1 16 1 18 1 19 1 21 1 26 1 40 1 45 1 46 1 50 1 52 1 62 1 70 1 80 1 88 1 90 1 91 1 98 1 20 1 1 3 1 9 1 12 1 16 1 22 1 30 1 33 1 41 1 46 1 58 1 59 1 61 1 69 1 74 1 77 1 79 1 83 1 85 1 98 1 20 1 1 4 1 5 1 16 1 21 1 27 1 29 1 35 1 48 1 54 1 56 1 63 1 65 1 75 1 78 1 80 1 86 1 94 1 95 1 98 1 20 1 1 5 1 7 1 21 1 29 1 30 1 33 1 36 1 39 1 45 1 56 1 67 1 74 1 75 1 79 1 90 1 91 1 95 1 96 1 97 1 20 3 1 4 1 13 1 15 1 17 1 19 1 24 1 25 1 29 1 33 1 34 1 45 1 59 1 62 1 74 1 76 1 79 1 92 1 96 1 98 1 20 0 1 4 1 6 1 10 1 11 1 13 1 23 1 26 1 33 1 49 1 54 1 56 1 59 1 65 1 69 1 70 1 82 1 84 1 88 1 89 1 20 0 1 1 1 9 1 10 1 11 1 18 1 19 1 25 1 33 1 38 1 40 1 41 1 44 1 54 1 82 1 83 1 91 1 92 1 94 1 99 1 20 4 1 14 1 17 1 28 1 33 1 36 1 38 1 46 1 47 1 54 1 55 1 59 1 61 1 66 1 68 1 72 1 77 1 79 1 83 1 87 1 20 0 1 10 1 21 1 22 1 23 1 26 1 29 1 38 1 41 1 42 1 45 1 54 1 57 1 62 1 65 1 72 1 86 1 88 1 91 1 99 1 20 0 1 1 1 3 1 5 1 7 1 17 1 25 1 26 1 30 1 31 1 53 1 58 1 60 1 65 1 79 1 82 1 84 1 91 1 95 1 98 1 20 1 1 5 1 7 1 21 1 29 1 30 1 33 1 36 1 39 1 45 1 56 1 67 1 74 1 75 1 79 1 90 1 91 1 95 1 96 1 97 1 20 2 1 4 1 12 1 14 1 22 1 24 1 28 1 33 1 47 1 49 1 51 1 53 1 58 1 66 1 72 1 76 1 83 1 93 1 94 1 97 1 20 3 1 5 1 12 1 19 1 21 1 27 1 28 1 33 1 35 1 38 1 40 1 43 1 49 1 58 1 72 1 80 1 86 1 87 1 90 1 91 1 20 6 1 7 1 8 1 14 1 18 1 25 1 31 1 36 1 43 1 44 1 45 1 47 1 60 1 67 1 85 1 87 1 94 1 95 1 97 1 99 1 20 7 1 9 1 21 1 25 1 26 1 28 1 29 1 31 1 38 1 43 1 47 1 49 1 59 1 68 1 69 1 75 1 82 1 83 1 90 1 97 1 20 2 1 11 1 15 1 21 1 38 1 46 1 47 1 56 1 58 1 60 1 70 1 71 1 77 1 78 1 80 1 82 1 87 1 92 1 93 1 97 1 20 7 1 8 1 18 1 19 1 20 1 21 1 24 1 30 1 35 1 36 1 37 1 40 1 45 1 47 1 56 1 65 1 68 1 72 1 78 1 90 1 20 1 1 9 1 10 1 11 1 20 1 21 1 26 1 34 1 43 1 44 1 46 1 53 1 64 1 65 1 66 1 77 1 82 1 86 1 92 1 96 1 20 2 1 10 1 11 1 18 1 19 1 27 1 36 1 42 1 46 1 47 1 49 1 52 1 54 1 59 1 60 1 65 1 67 1 72 1 80 1 82 1 20 1 1 3 1 9 1 14 1 20 1 22 1 29 1 38 1 41 1 42 1 46 1 48 1 49 1 50 1 75 1 84 1 85 1 91 1 94 1 99 1 20 1 1 7 1 11 1 15 1 22 1 27 1 32 1 35 1 40 1 41 1 50 1 56 1 57 1 60 1 62 1 68 1 80 1 82 1 88 1 95 1 20 0 1 5 1 11 1 16 1 17 1 23 1 27 1 29 1 30 1 48 1 50 1 51 1 59 1 61 1 65 1 74 1 78 1 79 1 85 1 95 1 20 0 1 1 1 9 1 10 1 11 1 18 1 19 1 25 1 33 1 38 1 40 1 41 1 44 1 54 1 82 1 83 1 91 1 92 1 94 1 99 1 20 2 1 6 1 7 1 13 1 16 1 19 1 20 1 22 1 23 1 33 1 39 1 43 1 46 1 55 1 71 1 79 1 80 1 95 1 97 1 99 1 20 9 1 12 1 28 1 39 1 41 1 42 1 48 1 51 1 61 1 65 1 66 1 68 1 73 1 75 1 76 1 77 1 78 1 86 1 92 1 98 1 20 3 1 4 1 12 1 20 1 23 1 28 1 31 1 40 1 47 1 58 1 59 1 60 1 62 1 70 1 74 1 76 1 84 1 86 1 89 1 96 1 20 3 1 12 1 18 1 19 1 29 1 46 1 51 1 55 1 57 1 64 1 67 1 71 1 73 1 76 1 77 1 80 1 85 1 91 1 92 1 99 1 20 1 1 3 1 5 1 12 1 13 1 14 1 19 1 22 1 31 1 42 1 44 1 47 1 54 1 55 1 56 1 69 1 70 1 82 1 84 1 86 1 20 2 1 3 1 4 1 6 1 7 1 13 1 15 1 22 1 24 1 25 1 36 1 38 1 50 1 51 1 57 1 66 1 72 1 73 1 84 1 94 1 20 0 1 1 1 9 1 10 1 11 1 18 1 19 1 25 1 33 1 38 1 40 1 41 1 44 1 54 1 82 1 83 1 91 1 92 1 94 1 99 1 20 0 1 8 1 9 1 15 1 19 1 20 1 21 1 23 1 25 1 26 1 34 1 36 1 48 1 56 1 60 1 62 1 65 1 69 1 94 1 96 1 20 6 1 7 1 9 1 11 1 17 1 24 1 31 1 35 1 37 1 44 1 69 1 76 1 78 1 79 1 82 1 83 1 91 1 95 1 96 1 99 1 20 1 1 5 1 10 1 11 1 24 1 25 1 29 1 31 1 32 1 33 1 36 1 41 1 44 1 58 1 61 1 66 1 74 1 90 1 91 1 96 1 20 5 1 6 1 8 1 15 1 17 1 18 1 19 1 23 1 26 1 27 1 31 1 32 1 40 1 43 1 51 1 54 1 79 1 81 1 91 1 95 1 20 1 1 3 1 5 1 12 1 13 1 14 1 19 1 22 1 31 1 42 1 44 1 47 1 54 1 55 1 56 1 69 1 70 1 82 1 84 1 86 1 20 7 1 8 1 12 1 14 1 15 1 17 1 22 1 26 1 34 1 36 1 53 1 59 1 68 1 70 1 74 1 75 1 76 1 81 1 85 1 89 1 20 1 1 9 1 11 1 13 1 24 1 37 1 41 1 44 1 46 1 49 1 52 1 59 1 62 1 65 1 77 1 80 1 85 1 88 1 91 1 99 1 20 0 1 7 1 10 1 14 1 22 1 27 1 29 1 45 1 47 1 48 1 49 1 56 1 59 1 63 1 72 1 73 1 81 1 84 1 85 1 96 1 20 0 1 1 1 9 1 10 1 11 1 18 1 19 1 25 1 33 1 38 1 40 1 41 1 44 1 54 1 82 1 83 1 91 1 92 1 94 1 99 1 20 9 1 10 1 13 1 21 1 25 1 34 1 41 1 48 1 50 1 58 1 61 1 62 1 69 1 75 1 83 1 87 1 90 1 92 1 93 1 98 1 20 9 1 10 1 11 1 12 1 15 1 20 1 21 1 22 1 36 1 37 1 44 1 47 1 56 1 58 1 60 1 80 1 82 1 86 1 89 1 97 1 20 4 1 7 1 9 1 23 1 33 1 36 1 40 1 41 1 47 1 49 1 54 1 62 1 63 1 74 1 76 1 79 1 82 1 93 1 94 1 99 1 20 2 1 3 1 6 1 14 1 17 1 18 1 27 1 39 1 49 1 50 1 54 1 60 1 66 1 73 1 79 1 85 1 92 1 97 1 98 1 99 1 20 9 1 10 1 13 1 21 1 25 1 34 1 41 1 48 1 50 1 58 1 61 1 62 1 69 1 75 1 83 1 87 1 90 1 92 1 93 1 98 1 20 9 1 10 1 11 1 12 1 15 1 20 1 21 1 22 1 36 1 37 1 44 1 47 1 56 1 58 1 60 1 80 1 82 1 86 1 89 1 97 1 20 3 1 17 1 21 1 26 1 30 1 38 1 40 1 46 1 48 1 50 1 62 1 66 1 67 1 68 1 69 1 71 1 74 1 84 1 89 1 93 1 20 1 1 3 1 5 1 12 1 13 1 14 1 19 1 22 1 31 1 42 1 44 1 47 1 54 1 55 1 56 1 69 1 70 1 82 1 84 1 86 1 20 6 1 7 1 9 1 11 1 17 1 24 1 31 1 35 1 37 1 44 1 69 1 76 1 78 1 79 1 82 1 83 1 91 1 95 1 96 1 99 1 20 0 1 1 1 9 1 10 1 11 1 18 1 19 1 25 1 33 1 38 1 40 1 41 1 44 1 54 1 82 1 83 1 91 1 92 1 94 1 99 1 20 1 1 4 1 12 1 15 1 18 1 26 1 29 1 30 1 37 1 39 1 51 1 53 1 57 1 58 1 60 1 69 1 70 1 78 1 82 1 95 1 20 9 1 12 1 28 1 39 1 41 1 42 1 48 1 51 1 61 1 65 1 66 1 68 1 73 1 75 1 76 1 77 1 78 1 86 1 92 1 98 1 20 3 1 5 1 11 1 12 1 16 1 20 1 26 1 32 1 35 1 42 1 45 1 49 1 51 1 52 1 53 1 54 1 60 1 65 1 70 1 97 1 20 2 1 3 1 6 1 13 1 21 1 34 1 36 1 49 1 58 1 61 1 64 1 65 1 71 1 79 1 81 1 85 1 86 1 87 1 89 1 90 1 20 3 1 5 1 12 1 19 1 21 1 27 1 28 1 33 1 35 1 38 1 40 1 43 1 49 1 58 1 72 1 80 1 86 1 87 1 90 1 91 1 20 3 1 6 1 9 1 13 1 14 1 17 1 18 1 29 1 31 1 38 1 47 1 49 1 51 1 61 1 77 1 78 1 81 1 82 1 94 1 98 1 20 1 1 5 1 6 1 14 1 22 1 25 1 31 1 40 1 43 1 45 1 49 1 52 1 56 1 57 1 69 1 73 1 75 1 76 1 80 1 93 1 20 0 1 11 1 12 1 18 1 22 1 44 1 48 1 57 1 59 1 61 1 64 1 74 1 77 1 78 1 81 1 85 1 88 1 91 1 96 1 97 1 20 5 1 10 1 13 1 17 1 23 1 25 1 26 1 29 1 42 1 46 1 47 1 48 1 49 1 51 1 54 1 55 1 59 1 66 1 94 1 97 1 20 14 1 16 1 23 1 25 1 26 1 32 1 34 1 41 1 43 1 47 1 71 1 75 1 80 1 82 1 83 1 85 1 86 1 91 1 93 1 98 1 20 2 1 4 1 9 1 18 1 31 1 35 1 41 1 43 1 46 1 49 1 50 1 59 1 60 1 61 1 67 1 68 1 73 1 75 1 90 1 94 1 20 1 1 7 1 13 1 18 1 26 1 28 1 31 1 32 1 58 1 59 1 61 1 62 1 63 1 68 1 77 1 79 1 80 1 85 1 90 1 98 1 20 7 1 16 1 19 1 23 1 30 1 32 1 35 1 37 1 38 1 47 1 50 1 57 1 66 1 79 1 81 1 83 1 86 1 91 1 95 1 96 1 20 10 1 18 1 19 1 22 1 23 1 24 1 27 1 35 1 41 1 43 1 50 1 56 1 63 1 71 1 85 1 88 1 89 1 94 1 97 1 99 1 20 4 1 9 1 11 1 19 1 23 1 30 1 31 1 35 1 37 1 40 1 41 1 48 1 63 1 75 1 76 1 78 1 84 1 85 1 94 1 99 1 20 1 1 3 1 5 1 11 1 12 1 28 1 36 1 41 1 42 1 45 1 51 1 52 1 54 1 63 1 65 1 70 1 86 1 88 1 89 1 90 1 20 4 1 7 1 8 1 9 1 15 1 19 1 21 1 25 1 26 1 33 1 40 1 43 1 56 1 63 1 64 1 65 1 69 1 74 1 84 1 97 1 20 8 1 11 1 19 1 21 1 26 1 27 1 28 1 35 1 39 1 42 1 43 1 49 1 50 1 54 1 61 1 71 1 78 1 81 1 94 1 97 1 20 7 1 8 1 26 1 32 1 33 1 34 1 36 1 38 1 51 1 61 1 64 1 67 1 69 1 74 1 84 1 88 1 90 1 92 1 95 1 97 1 20 1 1 3 1 5 1 11 1 12 1 28 1 36 1 41 1 42 1 45 1 51 1 52 1 54 1 63 1 65 1 70 1 86 1 88 1 89 1 90 1 20 5 1 12 1 15 1 16 1 19 1 24 1 28 1 35 1 39 1 41 1 50 1 62 1 74 1 77 1 78 1 83 1 91 1 92 1 94 1 97 1 20 1 1 5 1 10 1 11 1 24 1 25 1 29 1 31 1 32 1 33 1 36 1 41 1 44 1 58 1 61 1 66 1 74 1 90 1 91 1 96 1 20 6 1 7 1 19 1 25 1 26 1 28 1 36 1 37 1 43 1 47 1 49 1 56 1 59 1 60 1 62 1 66 1 72 1 80 1 92 1 94 1 20 1 1 2 1 10 1 14 1 17 1 18 1 19 1 21 1 24 1 30 1 35 1 48 1 49 1 52 1 64 1 72 1 76 1 80 1 82 1 92 1 20 2 1 11 1 15 1 21 1 38 1 46 1 47 1 56 1 58 1 60 1 70 1 71 1 77 1 78 1 80 1 82 1 87 1 92 1 93 1 97 1 20 10 1 18 1 22 1 23 1 29 1 30 1 39 1 41 1 42 1 43 1 47 1 50 1 59 1 60 1 67 1 73 1 83 1 86 1 90 1 97 1 20 0 1 3 1 11 1 12 1 16 1 19 1 30 1 37 1 48 1 49 1 51 1 52 1 59 1 66 1 71 1 77 1 79 1 82 1 89 1 98 1 20 3 1 12 1 18 1 19 1 29 1 46 1 51 1 55 1 57 1 64 1 67 1 71 1 73 1 76 1 77 1 80 1 85 1 91 1 92 1 99 1 20 2 1 4 1 12 1 14 1 22 1 24 1 28 1 33 1 47 1 49 1 51 1 53 1 58 1 66 1 72 1 76 1 83 1 93 1 94 1 97 1 20 3 1 5 1 12 1 19 1 21 1 27 1 28 1 33 1 35 1 38 1 40 1 43 1 49 1 58 1 72 1 80 1 86 1 87 1 90 1 91 1 20 9 1 16 1 17 1 37 1 43 1 44 1 47 1 48 1 52 1 53 1 60 1 64 1 67 1 71 1 73 1 76 1 79 1 81 1 94 1 97 1 20 0 1 1 1 10 1 11 1 13 1 14 1 24 1 33 1 35 1 36 1 39 1 40 1 58 1 63 1 71 1 85 1 86 1 87 1 93 1 97 1 20 10 1 13 1 24 1 28 1 33 1 38 1 49 1 58 1 61 1 64 1 68 1 74 1 75 1 79 1 88 1 90 1 91 1 94 1 95 1 97 1 20 0 1 11 1 12 1 18 1 22 1 44 1 48 1 57 1 59 1 61 1 64 1 74 1 77 1 78 1 81 1 85 1 88 1 91 1 96 1 97 1 20 1 1 4 1 15 1 18 1 26 1 31 1 34 1 48 1 51 1 53 1 55 1 61 1 69 1 71 1 72 1 79 1 80 1 83 1 96 1 98 1 20 0 1 11 1 16 1 31 1 39 1 40 1 54 1 62 1 70 1 74 1 77 1 78 1 79 1 82 1 84 1 89 1 90 1 91 1 94 1 99 1 20 1 1 2 1 6 1 11 1 13 1 14 1 39 1 43 1 50 1 52 1 64 1 65 1 68 1 71 1 75 1 84 1 87 1 90 1 91 1 94 1 20 2 1 6 1 20 1 23 1 26 1 29 1 39 1 49 1 50 1 59 1 61 1 64 1 67 1 68 1 69 1 75 1 76 1 77 1 80 1 84 1 20 0 1 3 1 11 1 12 1 16 1 19 1 30 1 37 1 48 1 49 1 51 1 52 1 59 1 66 1 71 1 77 1 79 1 82 1 89 1 98 1 20 1 1 3 1 9 1 14 1 20 1 22 1 29 1 38 1 41 1 42 1 46 1 48 1 49 1 50 1 75 1 84 1 85 1 91 1 94 1 99 1 20 2 1 6 1 12 1 15 1 16 1 25 1 29 1 30 1 35 1 37 1 38 1 41 1 49 1 56 1 58 1 70 1 73 1 81 1 86 1 89 1 20 8 1 10 1 14 1 18 1 23 1 25 1 32 1 37 1 51 1 53 1 55 1 59 1 61 1 72 1 76 1 78 1 82 1 84 1 89 1 91 1 20 4 1 12 1 17 1 21 1 27 1 31 1 45 1 50 1 54 1 64 1 71 1 74 1 75 1 77 1 78 1 80 1 87 1 93 1 98 1 99 1 20 4 1 16 1 22 1 23 1 40 1 44 1 51 1 58 1 62 1 66 1 67 1 76 1 81 1 88 1 89 1 91 1 92 1 94 1 95 1 97 1 20 0 1 11 1 12 1 18 1 22 1 44 1 48 1 57 1 59 1 61 1 64 1 74 1 77 1 78 1 81 1 85 1 88 1 91 1 96 1 97 1 20 0 1 2 1 5 1 9 1 14 1 18 1 20 1 21 1 23 1 32 1 34 1 41 1 46 1 54 1 79 1 82 1 84 1 87 1 90 1 91 1 20 2 1 11 1 15 1 21 1 38 1 46 1 47 1 56 1 58 1 60 1 70 1 71 1 77 1 78 1 80 1 82 1 87 1 92 1 93 1 97 1 20 1 1 5 1 7 1 21 1 29 1 30 1 33 1 36 1 39 1 45 1 56 1 67 1 74 1 75 1 79 1 90 1 91 1 95 1 96 1 97 1 20 0 1 18 1 22 1 26 1 28 1 37 1 39 1 42 1 46 1 48 1 62 1 65 1 73 1 78 1 79 1 89 1 90 1 93 1 94 1 99 1 20 2 1 11 1 15 1 21 1 38 1 46 1 47 1 56 1 58 1 60 1 70 1 71 1 77 1 78 1 80 1 82 1 87 1 92 1 93 1 97 1 20 0 1 3 1 11 1 12 1 16 1 19 1 30 1 37 1 48 1 49 1 51 1 52 1 59 1 66 1 71 1 77 1 79 1 82 1 89 1 98 1 20 0 1 7 1 10 1 14 1 22 1 27 1 29 1 45 1 47 1 48 1 49 1 56 1 59 1 63 1 72 1 73 1 81 1 84 1 85 1 96 1 20 1 1 3 1 5 1 11 1 12 1 28 1 36 1 41 1 42 1 45 1 51 1 52 1 54 1 63 1 65 1 70 1 86 1 88 1 89 1 90 1 20 0 1 2 1 6 1 17 1 23 1 30 1 44 1 49 1 52 1 53 1 63 1 64 1 67 1 69 1 78 1 82 1 85 1 89 1 96 1 98 1 20 2 1 5 1 16 1 18 1 20 1 21 1 22 1 30 1 31 1 32 1 42 1 44 1 47 1 54 1 64 1 67 1 82 1 85 1 92 1 97 1 20 0 1 3 1 30 1 32 1 35 1 45 1 53 1 54 1 57 1 58 1 62 1 70 1 84 1 85 1 86 1 90 1 94 1 95 1 97 1 98 1 20 2 1 5 1 8 1 13 1 17 1 18 1 24 1 26 1 27 1 29 1 37 1 42 1 49 1 56 1 59 1 63 1 65 1 73 1 84 1 87 1 20 13 1 17 1 19 1 21 1 25 1 27 1 28 1 31 1 32 1 41 1 45 1 47 1 59 1 60 1 61 1 64 1 71 1 84 1 85 1 88 1 20 0 1 12 1 14 1 19 1 23 1 24 1 30 1 32 1 34 1 36 1 43 1 45 1 53 1 56 1 75 1 83 1 87 1 91 1 93 1 97 1 20 6 1 7 1 13 1 16 1 17 1 23 1 32 1 36 1 40 1 43 1 44 1 57 1 59 1 60 1 65 1 71 1 78 1 80 1 89 1 94 1 20 2 1 3 1 9 1 13 1 20 1 28 1 41 1 43 1 47 1 55 1 60 1 68 1 69 1 76 1 78 1 82 1 85 1 86 1 89 1 96 1 20 2 1 4 1 9 1 18 1 31 1 35 1 41 1 43 1 46 1 49 1 50 1 59 1 60 1 61 1 67 1 68 1 73 1 75 1 90 1 94 1 20 9 1 11 1 19 1 26 1 27 1 29 1 30 1 34 1 42 1 46 1 47 1 56 1 61 1 63 1 66 1 67 1 68 1 77 1 81 1 84 1 20 11 1 22 1 34 1 36 1 38 1 42 1 54 1 57 1 58 1 61 1 66 1 71 1 73 1 79 1 89 1 93 1 94 1 95 1 97 1 99 1 20 0 1 1 1 9 1 10 1 11 1 18 1 19 1 25 1 33 1 38 1 40 1 41 1 44 1 54 1 82 1 83 1 91 1 92 1 94 1 99 1 20 1 1 4 1 12 1 15 1 18 1 26 1 29 1 30 1 37 1 39 1 51 1 53 1 57 1 58 1 60 1 69 1 70 1 78 1 82 1 95 1 20 2 1 11 1 15 1 21 1 38 1 46 1 47 1 56 1 58 1 60 1 70 1 71 1 77 1 78 1 80 1 82 1 87 1 92 1 93 1 97 1 20 2 1 7 1 9 1 13 1 21 1 22 1 24 1 27 1 30 1 34 1 52 1 57 1 62 1 72 1 77 1 78 1 82 1 91 1 92 1 93 1 20 0 1 1 1 9 1 10 1 11 1 18 1 19 1 25 1 33 1 38 1 40 1 41 1 44 1 54 1 82 1 83 1 91 1 92 1 94 1 99 1 20 0 1 2 1 3 1 4 1 8 1 14 1 15 1 16 1 17 1 28 1 33 1 43 1 49 1 52 1 55 1 66 1 76 1 80 1 91 1 96 1 20 9 1 12 1 28 1 39 1 41 1 42 1 48 1 51 1 61 1 65 1 66 1 68 1 73 1 75 1 76 1 77 1 78 1 86 1 92 1 98 1 20 7 1 9 1 21 1 25 1 26 1 28 1 29 1 31 1 38 1 43 1 47 1 49 1 59 1 68 1 69 1 75 1 82 1 83 1 90 1 97 1 20 0 1 2 1 22 1 28 1 32 1 35 1 36 1 37 1 40 1 44 1 45 1 54 1 64 1 67 1 72 1 73 1 79 1 86 1 95 1 99 1 20 0 1 11 1 12 1 18 1 22 1 44 1 48 1 57 1 59 1 61 1 64 1 74 1 77 1 78 1 81 1 85 1 88 1 91 1 96 1 97 1 20 5 1 10 1 13 1 17 1 23 1 25 1 26 1 29 1 42 1 46 1 47 1 48 1 49 1 51 1 54 1 55 1 59 1 66 1 94 1 97 1 20 3 1 4 1 16 1 21 1 23 1 28 1 36 1 37 1 38 1 41 1 49 1 52 1 56 1 57 1 60 1 61 1 66 1 79 1 81 1 88 1 20 8 1 9 1 16 1 17 1 22 1 26 1 30 1 45 1 47 1 49 1 50 1 53 1 57 1 60 1 62 1 86 1 91 1 94 1 95 1 96 1 20 1 1 10 1 13 1 16 1 23 1 28 1 34 1 38 1 39 1 40 1 41 1 44 1 49 1 55 1 60 1 71 1 79 1 84 1 86 1 93 1 20 0 1 6 1 16 1 21 1 24 1 25 1 32 1 38 1 46 1 51 1 56 1 57 1 64 1 65 1 66 1 67 1 87 1 90 1 92 1 94 1 20 9 1 10 1 13 1 21 1 25 1 34 1 41 1 48 1 50 1 58 1 61 1 62 1 69 1 75 1 83 1 87 1 90 1 92 1 93 1 98 1 20 9 1 10 1 11 1 12 1 15 1 20 1 21 1 22 1 36 1 37 1 44 1 47 1 56 1 58 1 60 1 80 1 82 1 86 1 89 1 97 1 20 4 1 7 1 9 1 10 1 30 1 34 1 35 1 36 1 40 1 45 1 46 1 52 1 55 1 61 1 63 1 65 1 69 1 76 1 79 1 87 1 20 1 1 4 1 5 1 9 1 12 1 16 1 36 1 38 1 48 1 54 1 55 1 58 1 61 1 64 1 74 1 77 1 91 1 96 1 97 1 98 1 20 1 1 3 1 9 1 14 1 20 1 22 1 29 1 38 1 41 1 42 1 46 1 48 1 49 1 50 1 75 1 84 1 85 1 91 1 94 1 99 1 20 8 1 10 1 14 1 18 1 23 1 25 1 32 1 37 1 51 1 53 1 55 1 59 1 61 1 72 1 76 1 78 1 82 1 84 1 89 1 91 1 20 4 1 10 1 21 1 22 1 29 1 32 1 34 1 39 1 41 1 43 1 54 1 66 1 68 1 71 1 78 1 80 1 89 1 90 1 92 1 97 1 20 0 1 11 1 12 1 18 1 22 1 44 1 48 1 57 1 59 1 61 1 64 1 74 1 77 1 78 1 81 1 85 1 88 1 91 1 96 1 97 1 20 1 1 4 1 15 1 18 1 26 1 31 1 34 1 48 1 51 1 53 1 55 1 61 1 69 1 71 1 72 1 79 1 80 1 83 1 96 1 98 1 20 3 1 4 1 16 1 21 1 23 1 28 1 36 1 37 1 38 1 41 1 49 1 52 1 56 1 57 1 60 1 61 1 66 1 79 1 81 1 88 1 20 10 1 14 1 16 1 18 1 20 1 27 1 34 1 39 1 41 1 42 1 43 1 44 1 48 1 58 1 62 1 72 1 77 1 85 1 91 1 96 1 20 8 1 10 1 14 1 18 1 23 1 25 1 32 1 37 1 51 1 53 1 55 1 59 1 61 1 72 1 76 1 78 1 82 1 84 1 89 1 91 1 20 9 1 10 1 13 1 21 1 25 1 34 1 41 1 48 1 50 1 58 1 61 1 62 1 69 1 75 1 83 1 87 1 90 1 92 1 93 1 98 1 20 9 1 10 1 11 1 12 1 15 1 20 1 21 1 22 1 36 1 37 1 44 1 47 1 56 1 58 1 60 1 80 1 82 1 86 1 89 1 97 1 20 3 1 6 1 8 1 17 1 21 1 23 1 33 1 34 1 35 1 44 1 55 1 59 1 62 1 70 1 76 1 81 1 87 1 89 1 94 1 98 1 20 0 1 3 1 4 1 13 1 17 1 23 1 26 1 34 1 44 1 45 1 48 1 53 1 54 1 58 1 66 1 69 1 78 1 82 1 83 1 99 1 20 0 1 2 1 11 1 13 1 29 1 31 1 33 1 47 1 49 1 53 1 56 1 60 1 61 1 63 1 66 1 74 1 82 1 87 1 93 1 96 1 20 6 1 13 1 17 1 18 1 19 1 20 1 22 1 29 1 32 1 35 1 58 1 61 1 67 1 69 1 75 1 76 1 85 1 86 1 92 1 95 1 20 1 1 4 1 10 1 12 1 17 1 22 1 33 1 34 1 43 1 44 1 48 1 53 1 63 1 66 1 74 1 80 1 85 1 88 1 89 1 95 1 20 17 1 20 1 29 1 33 1 41 1 48 1 49 1 50 1 54 1 55 1 56 1 64 1 71 1 74 1 75 1 79 1 82 1 84 1 86 1 98 1 20 1 1 5 1 7 1 21 1 29 1 30 1 33 1 36 1 39 1 45 1 56 1 67 1 74 1 75 1 79 1 90 1 91 1 95 1 96 1 97 1 20 0 1 2 1 5 1 9 1 14 1 18 1 20 1 21 1 23 1 32 1 34 1 41 1 46 1 54 1 79 1 82 1 84 1 87 1 90 1 91 1 20 2 1 11 1 15 1 21 1 38 1 46 1 47 1 56 1 58 1 60 1 70 1 71 1 77 1 78 1 80 1 82 1 87 1 92 1 93 1 97 1 20 0 1 5 1 7 1 10 1 15 1 18 1 26 1 29 1 37 1 45 1 47 1 48 1 51 1 54 1 71 1 72 1 73 1 82 1 86 1 98 1 20 0 1 3 1 7 1 25 1 31 1 34 1 36 1 45 1 49 1 50 1 52 1 53 1 64 1 68 1 69 1 74 1 78 1 80 1 95 1 99 1 20 8 1 11 1 14 1 15 1 18 1 21 1 30 1 37 1 43 1 63 1 66 1 68 1 72 1 75 1 83 1 89 1 90 1 92 1 93 1 98 1 20 7 1 10 1 13 1 15 1 19 1 23 1 29 1 32 1 35 1 37 1 38 1 47 1 48 1 49 1 61 1 62 1 82 1 89 1 90 1 96 1 20 10 1 13 1 24 1 28 1 33 1 38 1 49 1 58 1 61 1 64 1 68 1 74 1 75 1 79 1 88 1 90 1 91 1 94 1 95 1 97 1 20 1 1 12 1 17 1 22 1 24 1 28 1 36 1 52 1 58 1 60 1 63 1 64 1 67 1 71 1 72 1 73 1 74 1 76 1 93 1 95 1 20 1 1 4 1 12 1 20 1 21 1 31 1 42 1 45 1 51 1 57 1 60 1 62 1 65 1 70 1 72 1 76 1 78 1 83 1 86 1 94 1 20 1 1 4 1 5 1 16 1 21 1 27 1 29 1 35 1 48 1 54 1 56 1 63 1 65 1 75 1 78 1 80 1 86 1 94 1 95 1 98 1 20 1 1 3 1 5 1 11 1 12 1 28 1 36 1 41 1 42 1 45 1 51 1 52 1 54 1 63 1 65 1 70 1 86 1 88 1 89 1 90 1 20 0 1 2 1 6 1 8 1 14 1 20 1 24 1 32 1 38 1 43 1 45 1 59 1 69 1 71 1 72 1 74 1 81 1 87 1 92 1 96 1 20 1 1 5 1 10 1 11 1 24 1 25 1 29 1 31 1 32 1 33 1 36 1 41 1 44 1 58 1 61 1 66 1 74 1 90 1 91 1 96 1 20 6 1 7 1 19 1 25 1 26 1 28 1 36 1 37 1 43 1 47 1 49 1 56 1 59 1 60 1 62 1 66 1 72 1 80 1 92 1 94 1 20 1 1 4 1 15 1 18 1 26 1 31 1 34 1 48 1 51 1 53 1 55 1 61 1 69 1 71 1 72 1 79 1 80 1 83 1 96 1 98 1 20 2 1 8 1 13 1 17 1 18 1 28 1 31 1 35 1 36 1 45 1 50 1 64 1 68 1 69 1 73 1 76 1 82 1 88 1 91 1 93 1 20 4 1 5 1 8 1 14 1 18 1 22 1 25 1 37 1 38 1 40 1 42 1 48 1 53 1 54 1 62 1 64 1 67 1 77 1 93 1 97 1 20 1 1 13 1 19 1 25 1 30 1 34 1 35 1 36 1 38 1 41 1 49 1 51 1 57 1 70 1 73 1 77 1 80 1 92 1 93 1 96 1 20 3 1 12 1 18 1 19 1 29 1 46 1 51 1 55 1 57 1 64 1 67 1 71 1 73 1 76 1 77 1 80 1 85 1 91 1 92 1 99 1 20 0 1 3 1 11 1 12 1 16 1 19 1 30 1 37 1 48 1 49 1 51 1 52 1 59 1 66 1 71 1 77 1 79 1 82 1 89 1 98 1 20 7 1 10 1 12 1 13 1 15 1 22 1 23 1 29 1 30 1 37 1 46 1 48 1 49 1 54 1 65 1 66 1 69 1 72 1 82 1 95 1 20 0 1 7 1 10 1 14 1 22 1 27 1 29 1 45 1 47 1 48 1 49 1 56 1 59 1 63 1 72 1 73 1 81 1 84 1 85 1 96 1 20 1 1 3 1 5 1 11 1 12 1 28 1 36 1 41 1 42 1 45 1 51 1 52 1 54 1 63 1 65 1 70 1 86 1 88 1 89 1 90 1 20 4 1 14 1 16 1 21 1 29 1 43 1 44 1 51 1 53 1 55 1 57 1 58 1 70 1 80 1 83 1 84 1 87 1 88 1 89 1 92 1 20 2 1 3 1 4 1 5 1 13 1 15 1 25 1 27 1 34 1 51 1 55 1 59 1 60 1 67 1 70 1 82 1 87 1 89 1 92 1 98 1 20 1 1 9 1 17 1 35 1 38 1 45 1 50 1 51 1 53 1 56 1 59 1 62 1 72 1 77 1 80 1 82 1 85 1 91 1 94 1 95 1 20 3 1 11 1 20 1 28 1 32 1 38 1 50 1 53 1 55 1 58 1 68 1 72 1 73 1 78 1 81 1 84 1 86 1 90 1 92 1 94 1 20 9 1 12 1 28 1 39 1 41 1 42 1 48 1 51 1 61 1 65 1 66 1 68 1 73 1 75 1 76 1 77 1 78 1 86 1 92 1 98 1 20 1 1 4 1 5 1 19 1 25 1 29 1 37 1 41 1 42 1 46 1 49 1 51 1 57 1 68 1 71 1 77 1 80 1 90 1 95 1 98 1 20 3 1 5 1 20 1 27 1 28 1 29 1 31 1 40 1 43 1 56 1 58 1 65 1 66 1 74 1 79 1 82 1 90 1 92 1 93 1 99 1 20 2 1 4 1 12 1 14 1 19 1 28 1 44 1 45 1 57 1 59 1 60 1 63 1 72 1 77 1 79 1 84 1 85 1 91 1 94 1 98 1 20 8 1 10 1 14 1 18 1 23 1 25 1 32 1 37 1 51 1 53 1 55 1 59 1 61 1 72 1 76 1 78 1 82 1 84 1 89 1 91 1 20 1 1 4 1 8 1 13 1 14 1 17 1 22 1 23 1 27 1 45 1 47 1 51 1 73 1 75 1 78 1 79 1 81 1 82 1 89 1 99 1 20 8 1 14 1 28 1 29 1 38 1 43 1 48 1 51 1 56 1 58 1 60 1 61 1 68 1 73 1 75 1 77 1 84 1 90 1 93 1 98 1 20 3 1 4 1 8 1 24 1 25 1 27 1 33 1 38 1 40 1 50 1 53 1 58 1 65 1 66 1 75 1 77 1 81 1 84 1 87 1 92 1 20 0 1 7 1 10 1 14 1 22 1 27 1 29 1 45 1 47 1 48 1 49 1 56 1 59 1 63 1 72 1 73 1 81 1 84 1 85 1 96 1 20 0 1 1 1 9 1 10 1 11 1 18 1 19 1 25 1 33 1 38 1 40 1 41 1 44 1 54 1 82 1 83 1 91 1 92 1 94 1 99 1 20 0 1 3 1 5 1 6 1 10 1 12 1 14 1 21 1 28 1 33 1 34 1 35 1 51 1 54 1 62 1 71 1 73 1 84 1 92 1 93 1 20 9 1 22 1 29 1 30 1 33 1 38 1 41 1 43 1 49 1 52 1 79 1 81 1 82 1 84 1 88 1 89 1 94 1 96 1 97 1 99 1 20 0 1 8 1 14 1 22 1 23 1 33 1 35 1 36 1 43 1 46 1 48 1 49 1 54 1 55 1 71 1 74 1 77 1 90 1 93 1 95 1 20 1 1 3 1 5 1 11 1 12 1 28 1 36 1 41 1 42 1 45 1 51 1 52 1 54 1 63 1 65 1 70 1 86 1 88 1 89 1 90 1 20 4 1 14 1 16 1 21 1 29 1 43 1 44 1 51 1 53 1 55 1 57 1 58 1 70 1 80 1 83 1 84 1 87 1 88 1 89 1 92 1 20 2 1 3 1 4 1 5 1 13 1 15 1 25 1 27 1 34 1 51 1 55 1 59 1 60 1 67 1 70 1 82 1 87 1 89 1 92 1 98 1 20 4 1 7 1 9 1 10 1 30 1 34 1 35 1 36 1 40 1 45 1 46 1 52 1 55 1 61 1 63 1 65 1 69 1 76 1 79 1 87 1 20 1 1 3 1 5 1 11 1 12 1 28 1 36 1 41 1 42 1 45 1 51 1 52 1 54 1 63 1 65 1 70 1 86 1 88 1 89 1 90 1 20 0 1 3 1 4 1 5 1 6 1 38 1 39 1 41 1 47 1 56 1 63 1 64 1 73 1 79 1 80 1 84 1 87 1 97 1 98 1 99 1 20 2 1 3 1 4 1 5 1 13 1 15 1 25 1 27 1 34 1 51 1 55 1 59 1 60 1 67 1 70 1 82 1 87 1 89 1 92 1 98 1 20 3 1 11 1 12 1 15 1 19 1 28 1 33 1 34 1 37 1 38 1 41 1 44 1 53 1 54 1 67 1 71 1 73 1 78 1 88 1 92 1 20 2 1 14 1 15 1 32 1 34 1 39 1 40 1 41 1 47 1 48 1 52 1 54 1 61 1 64 1 71 1 86 1 87 1 89 1 93 1 95 1 20 5 1 11 1 12 1 13 1 18 1 19 1 20 1 24 1 31 1 43 1 56 1 60 1 64 1 65 1 67 1 71 1 78 1 80 1 92 1 93 1 20 4 1 8 1 13 1 18 1 35 1 41 1 42 1 51 1 53 1 59 1 64 1 68 1 69 1 71 1 85 1 86 1 92 1 96 1 98 1 99 1 20 0 1 5 1 15 1 17 1 22 1 35 1 43 1 45 1 53 1 54 1 56 1 60 1 70 1 71 1 76 1 79 1 82 1 90 1 91 1 98 1 20 1 1 3 1 9 1 14 1 20 1 22 1 29 1 38 1 41 1 42 1 46 1 48 1 49 1 50 1 75 1 84 1 85 1 91 1 94 1 99 1 20 0 1 11 1 12 1 18 1 22 1 44 1 48 1 57 1 59 1 61 1 64 1 74 1 77 1 78 1 81 1 85 1 88 1 91 1 96 1 97 1 20 9 1 15 1 19 1 29 1 31 1 38 1 39 1 44 1 45 1 49 1 50 1 52 1 54 1 55 1 57 1 59 1 61 1 65 1 87 1 94 1 20 1 1 11 1 14 1 21 1 27 1 32 1 37 1 39 1 41 1 44 1 48 1 57 1 62 1 65 1 78 1 82 1 83 1 91 1 97 1 99 1 20 7 1 9 1 17 1 32 1 39 1 40 1 45 1 47 1 50 1 58 1 62 1 68 1 70 1 72 1 76 1 87 1 88 1 95 1 96 1 97 1 20 6 1 8 1 12 1 14 1 15 1 23 1 31 1 37 1 38 1 40 1 45 1 46 1 50 1 56 1 73 1 74 1 78 1 80 1 83 1 95 1 20 1 1 4 1 15 1 18 1 26 1 31 1 34 1 48 1 51 1 53 1 55 1 61 1 69 1 71 1 72 1 79 1 80 1 83 1 96 1 98 1 20 0 1 1 1 11 1 15 1 16 1 17 1 21 1 25 1 29 1 30 1 33 1 41 1 45 1 60 1 70 1 77 1 79 1 83 1 85 1 87 1 20 2 1 3 1 9 1 13 1 20 1 28 1 41 1 43 1 47 1 55 1 60 1 68 1 69 1 76 1 78 1 82 1 85 1 86 1 89 1 96 1 20 1 1 5 1 7 1 21 1 29 1 30 1 33 1 36 1 39 1 45 1 56 1 67 1 74 1 75 1 79 1 90 1 91 1 95 1 96 1 97 1 20 9 1 13 1 15 1 18 1 20 1 27 1 39 1 45 1 51 1 55 1 60 1 62 1 68 1 77 1 79 1 86 1 87 1 93 1 95 1 98 1 20 0 1 1 1 9 1 10 1 11 1 18 1 19 1 25 1 33 1 38 1 40 1 41 1 44 1 54 1 82 1 83 1 91 1 92 1 94 1 99 1 20 1 1 4 1 12 1 15 1 18 1 26 1 29 1 30 1 37 1 39 1 51 1 53 1 57 1 58 1 60 1 69 1 70 1 78 1 82 1 95 1 20 2 1 4 1 12 1 14 1 22 1 24 1 28 1 33 1 47 1 49 1 51 1 53 1 58 1 66 1 72 1 76 1 83 1 93 1 94 1 97 1 20 3 1 5 1 12 1 19 1 21 1 27 1 28 1 33 1 35 1 38 1 40 1 43 1 49 1 58 1 72 1 80 1 86 1 87 1 90 1 91 1 20 0 1 2 1 5 1 9 1 14 1 18 1 20 1 21 1 23 1 32 1 34 1 41 1 46 1 54 1 79 1 82 1 84 1 87 1 90 1 91 1 20 2 1 11 1 15 1 21 1 38 1 46 1 47 1 56 1 58 1 60 1 70 1 71 1 77 1 78 1 80 1 82 1 87 1 92 1 93 1 97 1 20 0 1 3 1 11 1 12 1 16 1 19 1 30 1 37 1 48 1 49 1 51 1 52 1 59 1 66 1 71 1 77 1 79 1 82 1 89 1 98 1 20 2 1 3 1 4 1 8 1 17 1 18 1 25 1 26 1 27 1 32 1 38 1 39 1 46 1 50 1 63 1 67 1 68 1 73 1 80 1 84 1 20 2 1 3 1 4 1 18 1 20 1 25 1 28 1 37 1 40 1 43 1 44 1 53 1 63 1 64 1 75 1 76 1 78 1 89 1 91 1 97 1 20 4 1 7 1 15 1 16 1 19 1 24 1 25 1 37 1 46 1 62 1 64 1 70 1 79 1 81 1 84 1 85 1 90 1 94 1 96 1 98 1 20 3 1 4 1 16 1 21 1 23 1 28 1 36 1 37 1 38 1 41 1 49 1 52 1 56 1 57 1 60 1 61 1 66 1 79 1 81 1 88 1 20 2 1 4 1 9 1 18 1 31 1 35 1 41 1 43 1 46 1 49 1 50 1 59 1 60 1 61 1 67 1 68 1 73 1 75 1 90 1 94 1 20 0 1 2 1 3 1 16 1 18 1 23 1 29 1 37 1 51 1 57 1 58 1 66 1 71 1 74 1 75 1 77 1 78 1 79 1 88 1 94 1 20 3 1 12 1 18 1 19 1 29 1 46 1 51 1 55 1 57 1 64 1 67 1 71 1 73 1 76 1 77 1 80 1 85 1 91 1 92 1 99 1 20 8 1 11 1 19 1 21 1 26 1 27 1 28 1 35 1 39 1 42 1 43 1 49 1 50 1 54 1 61 1 71 1 78 1 81 1 94 1 97 1 20 3 1 9 1 10 1 14 1 20 1 30 1 35 1 37 1 42 1 46 1 49 1 52 1 56 1 78 1 80 1 81 1 85 1 89 1 97 1 98 1 20 0 1 3 1 4 1 8 1 11 1 31 1 32 1 35 1 36 1 44 1 45 1 59 1 65 1 67 1 70 1 84 1 85 1 86 1 88 1 98 1 20 1 1 9 1 11 1 15 1 29 1 36 1 42 1 52 1 62 1 66 1 68 1 69 1 74 1 78 1 79 1 80 1 87 1 89 1 94 1 99 1 20 22 1 28 1 29 1 30 1 31 1 36 1 40 1 41 1 42 1 45 1 51 1 58 1 59 1 62 1 67 1 73 1 82 1 85 1 87 1 95 1 20 0 1 7 1 10 1 14 1 22 1 27 1 29 1 45 1 47 1 48 1 49 1 56 1 59 1 63 1 72 1 73 1 81 1 84 1 85 1 96 1 20 7 1 11 1 13 1 21 1 25 1 32 1 34 1 35 1 36 1 38 1 49 1 53 1 60 1 63 1 67 1 71 1 74 1 76 1 86 1 96 1 20 2 1 3 1 6 1 14 1 17 1 18 1 27 1 39 1 49 1 50 1 54 1 60 1 66 1 73 1 79 1 85 1 92 1 97 1 98 1 99 1 20 10 1 11 1 19 1 21 1 28 1 32 1 37 1 43 1 49 1 56 1 58 1 59 1 63 1 65 1 71 1 74 1 82 1 89 1 90 1 98 1 20 3 1 7 1 10 1 12 1 22 1 31 1 32 1 34 1 36 1 44 1 47 1 48 1 49 1 58 1 62 1 67 1 70 1 82 1 89 1 98 1 20 5 1 17 1 22 1 26 1 31 1 34 1 37 1 40 1 42 1 53 1 54 1 56 1 61 1 68 1 70 1 82 1 84 1 87 1 88 1 97 1 20 4 1 7 1 9 1 10 1 30 1 34 1 35 1 36 1 40 1 45 1 46 1 52 1 55 1 61 1 63 1 65 1 69 1 76 1 79 1 87 1 20 4 1 12 1 17 1 21 1 27 1 31 1 45 1 50 1 54 1 64 1 71 1 74 1 75 1 77 1 78 1 80 1 87 1 93 1 98 1 99 1 20 1 1 2 1 6 1 11 1 13 1 14 1 39 1 43 1 50 1 52 1 64 1 65 1 68 1 71 1 75 1 84 1 87 1 90 1 91 1 94 1 20 3 1 12 1 18 1 19 1 29 1 46 1 51 1 55 1 57 1 64 1 67 1 71 1 73 1 76 1 77 1 80 1 85 1 91 1 92 1 99 1 20 4 1 7 1 15 1 16 1 19 1 24 1 25 1 37 1 46 1 62 1 64 1 70 1 79 1 81 1 84 1 85 1 90 1 94 1 96 1 98 1 20 1 1 3 1 5 1 11 1 12 1 28 1 36 1 41 1 42 1 45 1 51 1 52 1 54 1 63 1 65 1 70 1 86 1 88 1 89 1 90 1 20 3 1 5 1 6 1 12 1 15 1 26 1 29 1 34 1 40 1 49 1 50 1 63 1 64 1 70 1 77 1 82 1 83 1 87 1 90 1 95 1 20 15 1 29 1 33 1 34 1 37 1 39 1 43 1 50 1 56 1 57 1 58 1 62 1 63 1 64 1 72 1 79 1 89 1 90 1 91 1 99 1 20 8 1 10 1 14 1 18 1 23 1 25 1 32 1 37 1 51 1 53 1 55 1 59 1 61 1 72 1 76 1 78 1 82 1 84 1 89 1 91 1 20 9 1 10 1 13 1 21 1 25 1 34 1 41 1 48 1 50 1 58 1 61 1 62 1 69 1 75 1 83 1 87 1 90 1 92 1 93 1 98 1 20 9 1 10 1 11 1 12 1 15 1 20 1 21 1 22 1 36 1 37 1 44 1 47 1 56 1 58 1 60 1 80 1 82 1 86 1 89 1 97 1 20 0 1 3 1 7 1 25 1 31 1 34 1 36 1 45 1 49 1 50 1 52 1 53 1 64 1 68 1 69 1 74 1 78 1 80 1 95 1 99 1 20 0 1 1 1 9 1 10 1 11 1 18 1 19 1 25 1 33 1 38 1 40 1 41 1 44 1 54 1 82 1 83 1 91 1 92 1 94 1 99 1 20 3 1 12 1 14 1 17 1 23 1 33 1 35 1 41 1 42 1 43 1 60 1 64 1 71 1 77 1 81 1 86 1 90 1 91 1 93 1 95 1 20 4 1 10 1 11 1 14 1 20 1 21 1 22 1 24 1 27 1 32 1 51 1 53 1 54 1 56 1 57 1 65 1 69 1 72 1 81 1 98 1 20 4 1 6 1 7 1 13 1 14 1 18 1 22 1 26 1 30 1 38 1 43 1 49 1 56 1 74 1 80 1 81 1 85 1 89 1 92 1 96 1 20 1 1 4 1 6 1 7 1 9 1 22 1 32 1 35 1 48 1 51 1 59 1 62 1 65 1 69 1 70 1 71 1 76 1 78 1 95 1 97 1 20 1 1 2 1 6 1 7 1 12 1 18 1 28 1 30 1 38 1 41 1 45 1 47 1 48 1 51 1 56 1 62 1 66 1 68 1 77 1 85 1 20 2 1 6 1 14 1 21 1 24 1 28 1 31 1 33 1 42 1 45 1 46 1 47 1 48 1 52 1 76 1 83 1 85 1 89 1 95 1 98 1 20 1 1 9 1 14 1 21 1 23 1 26 1 27 1 28 1 30 1 36 1 39 1 51 1 55 1 57 1 65 1 69 1 77 1 97 1 98 1 99 1 20 2 1 3 1 16 1 17 1 25 1 27 1 29 1 30 1 36 1 39 1 45 1 55 1 78 1 83 1 89 1 90 1 92 1 93 1 95 1 99 1 20 9 1 11 1 19 1 26 1 27 1 29 1 30 1 34 1 42 1 46 1 47 1 56 1 61 1 63 1 66 1 67 1 68 1 77 1 81 1 84 1 20 9 1 10 1 12 1 16 1 19 1 23 1 32 1 33 1 38 1 39 1 40 1 44 1 52 1 53 1 68 1 72 1 73 1 75 1 85 1 93 1 20 3 1 12 1 18 1 19 1 29 1 46 1 51 1 55 1 57 1 64 1 67 1 71 1 73 1 76 1 77 1 80 1 85 1 91 1 92 1 99 1 20 0 1 5 1 9 1 11 1 18 1 25 1 26 1 27 1 32 1 35 1 36 1 44 1 45 1 57 1 58 1 63 1 69 1 75 1 88 1 91 1 20 10 1 13 1 19 1 28 1 31 1 35 1 37 1 42 1 43 1 47 1 52 1 58 1 78 1 80 1 88 1 89 1 93 1 94 1 95 1 96 1 20 5 1 8 1 16 1 17 1 27 1 39 1 44 1 47 1 51 1 58 1 60 1 67 1 72 1 74 1 79 1 90 1 91 1 93 1 94 1 97 1 20 3 1 8 1 15 1 16 1 17 1 20 1 21 1 30 1 41 1 43 1 46 1 50 1 58 1 61 1 73 1 77 1 79 1 81 1 93 1 94 1 20 9 1 12 1 28 1 39 1 41 1 42 1 48 1 51 1 61 1 65 1 66 1 68 1 73 1 75 1 76 1 77 1 78 1 86 1 92 1 98 1 20 3 1 5 1 11 1 12 1 16 1 20 1 26 1 32 1 35 1 42 1 45 1 49 1 51 1 52 1 53 1 54 1 60 1 65 1 70 1 97 1 20 2 1 3 1 8 1 11 1 13 1 15 1 16 1 19 1 28 1 31 1 36 1 45 1 46 1 56 1 60 1 64 1 85 1 94 1 96 1 98 1 20 3 1 12 1 18 1 19 1 29 1 46 1 51 1 55 1 57 1 64 1 67 1 71 1 73 1 76 1 77 1 80 1 85 1 91 1 92 1 99 1 20 3 1 5 1 6 1 17 1 19 1 27 1 33 1 34 1 37 1 51 1 55 1 67 1 70 1 71 1 75 1 85 1 89 1 90 1 91 1 93 1 20 7 1 9 1 11 1 17 1 18 1 27 1 30 1 38 1 40 1 46 1 50 1 52 1 66 1 72 1 76 1 80 1 88 1 92 1 95 1 96 1 20 1 1 5 1 7 1 21 1 29 1 30 1 33 1 36 1 39 1 45 1 56 1 67 1 74 1 75 1 79 1 90 1 91 1 95 1 96 1 97 1 20 6 1 14 1 23 1 36 1 44 1 45 1 48 1 56 1 61 1 67 1 69 1 80 1 81 1 84 1 89 1 90 1 93 1 94 1 98 1 99 1 20 3 1 6 1 9 1 13 1 14 1 17 1 18 1 29 1 31 1 38 1 47 1 49 1 51 1 61 1 77 1 78 1 81 1 82 1 94 1 98 1 20 0 1 7 1 9 1 11 1 25 1 29 1 31 1 32 1 37 1 41 1 46 1 48 1 55 1 61 1 64 1 66 1 84 1 86 1 91 1 95 1 '
tbsS'_mean'
p16
NsS'_M'
p17
NsS'binarizationThreshold'
p18
F0.5
sS'_partitionIdMap'
p19
(dp20
I0
(lp21
I0
aI1
aI2
aI3
aI4
aI5
aI6
aI7
aI8
aI9
aI10
aI11
aI12
aI13
aI14
aI15
aI16
aI17
aI18
aI19
aI20
aI21
aI22
aI23
asI1
(lp22
I24
aI25
aI26
aI27
asI2
(lp23
I28
aI29
aI30
aI31
aI32
aI33
aI34
aI35
aI36
aI37
aI38
aI39
asI3
(lp24
I40
asI4
(lp25
I41
aI42
aI43
aI44
aI45
aI46
aI47
aI48
asI5
(lp26
I49
aI50
aI51
aI52
aI53
aI54
aI55
aI56
aI57
aI58
aI59
aI60
aI61
aI62
aI63
aI64
aI65
aI66
aI67
asI6
(lp27
I68
aI69
aI70
aI71
aI72
aI73
aI74
aI75
aI76
aI77
aI78
aI79
aI80
aI81
aI82
aI83
aI84
aI85
aI86
aI87
aI88
asI7
(lp28
I89
aI90
aI91
aI92
asI8
(lp29
I93
aI94
aI95
aI96
aI97
aI98
aI99
aI100
aI101
aI102
aI103
aI104
aI105
asI9
(lp30
I106
aI107
aI108
aI109
aI110
aI111
aI112
aI113
asI10
(lp31
I114
aI115
aI116
aI117
aI118
aI119
aI120
aI121
aI122
asI11
(lp32
I123
aI124
aI125
aI126
aI127
aI128
aI129
aI130
aI131
asI12
(lp33
I132
aI133
aI134
aI135
aI136
aI137
aI138
aI139
aI140
asI13
(lp34
I141
aI142
aI143
aI144
aI145
aI146
aI147
aI148
aI149
aI150
aI151
aI152
asI14
(lp35
I153
aI154
aI155
aI156
aI157
aI158
aI159
aI160
aI161
aI162
aI163
aI164
aI165
aI166
aI167
aI168
aI169
aI170
aI171
aI172
aI173
aI174
aI175
aI176
aI177
aI178
aI179
aI180
aI181
aI182
aI183
aI184
aI185
aI186
aI187
aI188
aI189
aI190
aI191
aI192
aI193
aI194
aI195
aI196
aI197
aI198
aI199
aI200
aI201
aI202
aI203
aI204
aI205
aI206
aI207
aI208
aI209
aI210
aI211
aI212
aI213
aI214
aI215
aI216
aI217
aI218
aI219
aI220
aI221
aI222
aI223
aI224
aI225
aI226
aI227
aI228
aI229
aI230
aI231
aI232
aI233
aI234
asI15
(lp36
I235
aI236
aI237
aI238
aI239
aI240
aI241
aI242
aI243
aI244
aI245
aI246
asI16
(lp37
I247
aI248
aI249
aI250
aI251
aI252
aI253
aI254
aI255
aI256
aI257
aI258
aI259
aI260
aI261
aI262
aI263
aI264
aI265
aI266
aI267
aI268
aI269
aI270
aI271
aI272
asI17
(lp38
I273
aI274
aI275
aI276
aI277
aI278
aI279
aI280
aI281
aI282
aI283
aI284
aI285
aI286
aI287
aI288
aI289
aI290
aI291
asI18
(lp39
I292
aI293
aI294
aI295
aI296
aI297
aI298
aI299
aI300
aI301
aI302
aI303
aI304
aI305
aI306
aI307
aI308
aI309
aI310
aI311
aI312
aI313
aI314
aI315
aI316
aI317
aI318
aI319
aI320
asI19
(lp40
I321
aI322
aI323
aI324
aI325
aI326
aI327
aI328
aI329
asI20
(lp41
I330
aI331
aI332
aI333
aI334
aI335
aI336
asI21
(lp42
I337
aI338
aI339
aI340
aI341
asI22
(lp43
I342
aI343
aI344
aI345
aI346
aI347
aI348
aI349
aI350
aI351
aI352
aI353
aI354
aI355
aI356
aI357
aI358
aI359
aI360
aI361
aI362
aI363
aI364
aI365
aI366
asI23
(lp44
I367
aI368
aI369
aI370
aI371
aI372
asI24
(lp45
I373
aI374
aI375
aI376
aI377
aI378
aI379
aI380
asI25
(lp46
I381
aI382
aI383
aI384
aI385
aI386
aI387
aI388
aI389
aI390
aI391
aI392
aI393
aI394
aI395
aI396
aI397
aI398
aI399
aI400
aI401
aI402
asI26
(lp47
I403
aI404
aI405
aI406
aI407
aI408
aI409
aI410
aI411
aI412
asI27
(lp48
I413
aI414
aI415
aI416
aI417
aI418
aI419
aI420
asI28
(lp49
I421
aI422
aI423
aI424
aI425
aI426
aI427
aI428
aI429
aI430
asI29
(lp50
I431
aI432
aI433
aI434
asI30
(lp51
I435
aI436
aI437
aI438
aI439
aI440
aI441
aI442
aI443
aI444
aI445
aI446
aI447
aI448
aI449
aI450
aI451
aI452
asI31
(lp52
I453
aI454
aI455
aI456
aI457
aI458
aI459
aI460
aI461
aI462
aI463
aI464
aI465
aI466
aI467
aI468
aI469
aI470
aI471
aI472
aI473
aI474
aI475
asI32
(lp53
I476
aI477
asI33
(lp54
I478
aI479
aI480
aI481
aI482
aI483
asI34
(lp55
I484
aI485
aI486
aI487
aI488
aI489
aI490
aI491
aI492
aI493
aI494
aI495
aI496
aI497
aI498
aI499
assS'_iterationIdx'
p56
I-1
sS'_finishedLearning'
p57
I00
sS'_s'
p58
NsS'numWinners'
p59
I0
sS'version'
p60
I1
sS'_nextTrainingIndices'
p61
NsS'_vt'
p62
NsS'_nc'
p63
NsS'numSVDDims'
p64
NsS'distanceMethod'
p65
S'pctOverlapOfInput'
p66
sS'cellsPerCol'
p67
I0
sS'doBinarization'
p68
I00
sS'distanceNorm'
p69
F2
sS'fractionOfMax'
p70
NsS'exact'
p71
I01
sS'_specificIndexTraining'
p72
I00
sS'_numPatterns'
p73
I500
sS'_categoryList'
p74
(lp75
I0
aI0
aI0
aI0
aI0
aI0
aI0
aI0
aI0
aI0
aI0
aI0
aI0
aI0
aI0
aI0
aI0
aI0
aI0
aI0
aI0
aI0
aI0
aI0
aI1
aI1
aI1
aI1
aI2
aI2
aI2
aI2
aI2
aI2
aI2
aI2
aI2
aI2
aI2
aI2
aI3
aI4
aI4
aI4
aI4
aI4
aI4
aI4
aI4
aI5
aI5
aI5
aI5
aI5
aI5
aI5
aI5
aI5
aI5
aI5
aI5
aI5
aI5
aI5
aI5
aI5
aI5
aI5
aI6
aI6
aI6
aI6
aI6
aI6
aI6
aI6
aI6
aI6
aI6
aI6
aI6
aI6
aI6
aI6
aI6
aI6
aI6
aI6
aI6
aI7
aI7
aI7
aI7
aI8
aI8
aI8
aI8
aI8
aI8
aI8
aI8
aI8
aI8
aI8
aI8
aI8
aI9
aI9
aI9
aI9
aI9
aI9
aI9
aI9
aI10
aI10
aI10
aI10
aI10
aI10
aI10
aI10
aI10
aI11
aI11
aI11
aI11
aI11
aI11
aI11
aI11
aI11
aI12
aI12
aI12
aI12
aI12
aI12
aI12
aI12
aI12
aI13
aI13
aI13
aI13
aI13
aI13
aI13
aI13
aI13
aI13
aI13
aI13
aI14
aI14
aI14
aI14
aI14
aI14
aI14
aI14
aI14
aI14
aI14
aI14
aI14
aI14
aI14
aI14
aI14
aI14
aI14
aI14
aI14
aI14
aI14
aI14
aI14
aI14
aI14
aI14
aI14
aI14
aI14
aI14
aI14
aI14
aI14
aI14
aI14
aI14
aI14
aI14
aI14
aI14
aI14
aI14
aI14
aI14
aI14
aI14
aI14
aI14
aI14
aI14
aI14
aI14
aI14
aI14
aI14
aI14
aI14
aI14
aI14
aI14
aI14
aI14
aI14
aI14
aI14
aI14
aI14
aI14
aI14
aI14
aI14
aI14
aI14
aI14
aI14
aI14
aI14
aI14
aI14
aI14
aI15
aI15
aI15
aI15
aI15
aI15
aI15
aI15
aI15
aI15
aI15
aI15
aI16
aI16
aI16
aI16
aI16
aI16
aI16
aI16
aI16
aI16
aI16
aI16
aI16
aI16
aI16
aI16
aI16
aI16
aI16
aI16
aI16
aI16
aI16
aI16
aI16
aI16
aI17
aI17
aI17
aI17
aI17
aI17
aI17
aI17
aI17
aI17
aI17
aI17
aI17
aI17
aI17
aI17
aI17
aI17
aI17
aI18
aI18
aI18
aI18
aI18
aI18
aI18
aI18
aI18
aI18
aI18
aI18
aI18
aI18
aI18
aI18
aI18
aI18
aI18
aI18
aI18
aI18
aI18
aI18
aI18
aI18
aI18
aI18
aI18
aI19
aI19
aI19
aI19
aI19
aI19
aI19
aI19
aI19
aI20
aI20
aI20
aI20
aI20
aI20
aI20
aI21
aI21
aI21
aI21
aI21
aI22
aI22
aI22
aI22
aI22
aI22
aI22
aI22
aI22
aI22
aI22
aI22
aI22
aI22
aI22
aI22
aI22
aI22
aI22
aI22
aI22
aI22
aI22
aI22
aI22
aI23
aI23
aI23
aI23
aI23
aI23
aI24
aI24
aI24
aI24
aI24
aI24
aI24
aI24
aI25
aI25
aI25
aI25
aI25
aI25
aI25
aI25
aI25
aI25
aI25
aI25
aI25
aI25
aI25
aI25
aI25
aI25
aI25
aI25
aI25
aI25
aI26
aI26
aI26
aI26
aI26
aI26
aI26
aI26
aI26
aI26
aI27
aI27
aI27
aI27
aI27
aI27
aI27
aI27
aI28
aI28
aI28
aI28
aI28
aI28
aI28
aI28
aI28
aI28
aI29
aI29
aI29
aI29
aI30
aI30
aI30
aI30
aI30
aI30
aI30
aI30
aI30
aI30
aI30
aI30
aI30
aI30
aI30
aI30
aI30
aI30
aI31
aI31
aI31
aI31
aI31
aI31
aI31
aI31
aI31
aI31
aI31
aI31
aI31
aI31
aI31
aI31
aI31
aI31
aI31
aI31
aI31
aI31
aI31
aI32
aI32
aI33
aI33
aI33
aI33
aI33
aI33
aI34
aI34
aI34
aI34
aI34
aI34
aI34
aI34
aI34
aI34
aI34
aI34
aI34
aI34
aI34
aI34
asS'_protoSizes'
p76
NsS'replaceDuplicates'
p77
I00
sS'useSparseMemory'
p78
I01
sS'relativeThreshold'
p79
I00
sS'k'
I1
sS'sparseThreshold'
p80
F0.10000000000000001
sS'maxStoredPatterns'
p81
I-1
sS'_partitionIdList'
p82
(lp83
I0
aI0
aI0
aI0
aI0
aI0
aI0
aI0
aI0
aI0
aI0
aI0
aI0
aI0
aI0
aI0
aI0
aI0
aI0
aI0
aI0
aI0
aI0
aI0
aI1
aI1
aI1
aI1
aI2
aI2
aI2
aI2
aI2
aI2
aI2
aI2
aI2
aI2
aI2
aI2
aI3
aI4
aI4
aI4
aI4
aI4
aI4
aI4
aI4
aI5
aI5
aI5
aI5
aI5
aI5
aI5
aI5
aI5
aI5
aI5
aI5
aI5
aI5
aI5
aI5
aI5
aI5
aI5
aI6
aI6
aI6
aI6
aI6
aI6
aI6
aI6
aI6
aI6
aI6
aI6
aI6
aI6
aI6
aI6
aI6
aI6
aI6
aI6
aI6
aI7
aI7
aI7
aI7
aI8
aI8
aI8
aI8
aI8
aI8
aI8
aI8
aI8
aI8
aI8
aI8
aI8
aI9
aI9
aI9
aI9
aI9
aI9
aI9
aI9
aI10
aI10
aI10
aI10
aI10
aI10
aI10
aI10
aI10
aI11
aI11
aI11
aI11
aI11
aI11
aI11
aI11
aI11
aI12
aI12
aI12
aI12
aI12
aI12
aI12
aI12
aI12
aI13
aI13
aI13
aI13
aI13
aI13
aI13
aI13
aI13
aI13
aI13
aI13
aI14
aI14
aI14
aI14
aI14
aI14
aI14
aI14
aI14
aI14
aI14
aI14
aI14
aI14
aI14
aI14
aI14
aI14
aI14
aI14
aI14
aI14
aI14
aI14
aI14
aI14
aI14
aI14
aI14
aI14
aI14
aI14
aI14
aI14
aI14
aI14
aI14
aI14
aI14
aI14
aI14
aI14
aI14
aI14
aI14
aI14
aI14
aI14
aI14
aI14
aI14
aI14
aI14
aI14
aI14
aI14
aI14
aI14
aI14
aI14
aI14
aI14
aI14
aI14
aI14
aI14
aI14
aI14
aI14
aI14
aI14
aI14
aI14
aI14
aI14
aI14
aI14
aI14
aI14
aI14
aI14
aI14
aI15
aI15
aI15
aI15
aI15
aI15
aI15
aI15
aI15
aI15
aI15
aI15
aI16
aI16
aI16
aI16
aI16
aI16
aI16
aI16
aI16
aI16
aI16
aI16
aI16
aI16
aI16
aI16
aI16
aI16
aI16
aI16
aI16
aI16
aI16
aI16
aI16
aI16
aI17
aI17
aI17
aI17
aI17
aI17
aI17
aI17
aI17
aI17
aI17
aI17
aI17
aI17
aI17
aI17
aI17
aI17
aI17
aI18
aI18
aI18
aI18
aI18
aI18
aI18
aI18
aI18
aI18
aI18
aI18
aI18
aI18
aI18
aI18
aI18
aI18
aI18
aI18
aI18
aI18
aI18
aI18
aI18
aI18
aI18
aI18
aI18
aI19
aI19
aI19
aI19
aI19
aI19
aI19
aI19
aI19
aI20
aI20
aI20
aI20
aI20
aI20
aI20
aI21
aI21
aI21
aI21
aI21
aI22
aI22
aI22
aI22
aI22
aI22
aI22
aI22
aI22
aI22
aI22
aI22
aI22
aI22
aI22
aI22
aI22
aI22
aI22
aI22
aI22
aI22
aI22
aI22
aI22
aI23
aI23
aI23
aI23
aI23
aI23
aI24
aI24
aI24
aI24
aI24
aI24
aI24
aI24
aI25
aI25
aI25
aI25
aI25
aI25
aI25
aI25
aI25
aI25
aI25
aI25
aI25
aI25
aI25
aI25
aI25
aI25
aI25
aI25
aI25
aI25
aI26
aI26
aI26
aI26
aI26
aI26
aI26
aI26
aI26
aI26
aI27
aI27
aI27
aI27
aI27
aI27
aI27
aI27
aI28
aI28
aI28
aI28
aI28
aI28
aI28
aI28
aI28
aI28
aI29
aI29
aI29
aI29
aI30
aI30
aI30
aI30
aI30
aI30
aI30
aI30
aI30
aI30
aI30
aI30
aI30
aI30
aI30
aI30
aI30
aI30
aI31
aI31
aI31
aI31
aI31
aI31
aI31
aI31
aI31
aI31
aI31
aI31
aI31
aI31
aI31
aI31
aI31
aI31
aI31
aI31
aI31
aI31
aI31
aI32
aI32
aI33
aI33
aI33
aI33
aI33
aI33
aI34
aI34
aI34
aI34
aI34
aI34
aI34
aI34
aI34
aI34
aI34
aI34
aI34
aI34
aI34
aI34
asS'_adaptiveSVDDims'
p84
I00
sS'fixedCapacity'
p85
I00
sS'distThreshold'
p86
I0
sg6
I0
sS'numSVDSamples'
p87
Nsbsb.